
robotron.elf:     formato del fichero elf32-bigmips


Desensamblado de la sección .text:

00400000 <start>:
  400000:	3c1d7fff 	lui	sp,0x7fff
  400004:	37bdfffc 	ori	sp,sp,0xfffc
  400008:	0c100230 	jal	4008c0 <main>
  40000c:	08100003 	j	40000c <start+0xc>

00400010 <pintarobots>:
  400010:	23bdffe4 	addi	sp,sp,-28
  400014:	afbf0000 	sw	ra,0(sp)
  400018:	afb00004 	sw	s0,4(sp)
  40001c:	afb10008 	sw	s1,8(sp)
  400020:	afa4000c 	sw	a0,12(sp)
  400024:	afa50010 	sw	a1,16(sp)
  400028:	afa80014 	sw	t0,20(sp)
  40002c:	afa90018 	sw	t1,24(sp)
  400030:	20040002 	addi	a0,zero,2
  400034:	20050000 	addi	a1,zero,0
  400038:	0c100724 	jal	401c90 <set_color>
  40003c:	00000000 	nop

00400040 <robot>:
  400040:	3c101001 	lui	s0,0x1001
  400044:	26100070 	addiu	s0,s0,112
  400048:	8e080000 	lw	t0,0(s0)
  40004c:	3c111001 	lui	s1,0x1001
  400050:	2631006c 	addiu	s1,s1,108
  400054:	8e290000 	lw	t1,0(s1)
  400058:	01002025 	move	a0,t0
  40005c:	01202825 	move	a1,t1
  400060:	0c100732 	jal	401cc8 <set_cursor>
  400064:	00000000 	nop
  400068:	20040003 	addi	a0,zero,3
  40006c:	0c10073b 	jal	401cec <put_char>
  400070:	00000000 	nop
  400074:	01002025 	move	a0,t0
  400078:	01202825 	move	a1,t1
  40007c:	20a50001 	addi	a1,a1,1
  400080:	0c100732 	jal	401cc8 <set_cursor>
  400084:	00000000 	nop
  400088:	20040004 	addi	a0,zero,4
  40008c:	0c10073b 	jal	401cec <put_char>
  400090:	00000000 	nop

00400094 <robot1>:
  400094:	3c101001 	lui	s0,0x1001
  400098:	26100068 	addiu	s0,s0,104
  40009c:	8e080000 	lw	t0,0(s0)
  4000a0:	3c111001 	lui	s1,0x1001
  4000a4:	26310064 	addiu	s1,s1,100
  4000a8:	8e290000 	lw	t1,0(s1)
  4000ac:	01002025 	move	a0,t0
  4000b0:	01202825 	move	a1,t1
  4000b4:	0c100732 	jal	401cc8 <set_cursor>
  4000b8:	00000000 	nop
  4000bc:	20040003 	addi	a0,zero,3
  4000c0:	0c10073b 	jal	401cec <put_char>
  4000c4:	00000000 	nop
  4000c8:	01002025 	move	a0,t0
  4000cc:	01202825 	move	a1,t1
  4000d0:	20a50001 	addi	a1,a1,1
  4000d4:	0c100732 	jal	401cc8 <set_cursor>
  4000d8:	00000000 	nop
  4000dc:	20040004 	addi	a0,zero,4
  4000e0:	0c10073b 	jal	401cec <put_char>
  4000e4:	00000000 	nop

004000e8 <robot2>:
  4000e8:	3c101001 	lui	s0,0x1001
  4000ec:	26100060 	addiu	s0,s0,96
  4000f0:	8e080000 	lw	t0,0(s0)
  4000f4:	3c111001 	lui	s1,0x1001
  4000f8:	2631005c 	addiu	s1,s1,92
  4000fc:	8e290000 	lw	t1,0(s1)
  400100:	01002025 	move	a0,t0
  400104:	01202825 	move	a1,t1
  400108:	0c100732 	jal	401cc8 <set_cursor>
  40010c:	00000000 	nop
  400110:	20040003 	addi	a0,zero,3
  400114:	0c10073b 	jal	401cec <put_char>
  400118:	00000000 	nop
  40011c:	01002025 	move	a0,t0
  400120:	01202825 	move	a1,t1
  400124:	20a50001 	addi	a1,a1,1
  400128:	0c100732 	jal	401cc8 <set_cursor>
  40012c:	00000000 	nop
  400130:	20040004 	addi	a0,zero,4
  400134:	0c10073b 	jal	401cec <put_char>
  400138:	00000000 	nop

0040013c <robot3>:
  40013c:	3c101001 	lui	s0,0x1001
  400140:	26100058 	addiu	s0,s0,88
  400144:	8e080000 	lw	t0,0(s0)
  400148:	3c111001 	lui	s1,0x1001
  40014c:	26310054 	addiu	s1,s1,84
  400150:	8e290000 	lw	t1,0(s1)
  400154:	01002025 	move	a0,t0
  400158:	01202825 	move	a1,t1
  40015c:	0c100732 	jal	401cc8 <set_cursor>
  400160:	00000000 	nop
  400164:	20040003 	addi	a0,zero,3
  400168:	0c10073b 	jal	401cec <put_char>
  40016c:	00000000 	nop
  400170:	01002025 	move	a0,t0
  400174:	01202825 	move	a1,t1
  400178:	20a50001 	addi	a1,a1,1
  40017c:	0c100732 	jal	401cc8 <set_cursor>
  400180:	00000000 	nop
  400184:	20040004 	addi	a0,zero,4
  400188:	0c10073b 	jal	401cec <put_char>
  40018c:	00000000 	nop

00400190 <robot4>:
  400190:	3c101001 	lui	s0,0x1001
  400194:	26100050 	addiu	s0,s0,80
  400198:	8e080000 	lw	t0,0(s0)
  40019c:	3c111001 	lui	s1,0x1001
  4001a0:	2631004c 	addiu	s1,s1,76
  4001a4:	8e290000 	lw	t1,0(s1)
  4001a8:	01002025 	move	a0,t0
  4001ac:	01202825 	move	a1,t1
  4001b0:	0c100732 	jal	401cc8 <set_cursor>
  4001b4:	00000000 	nop
  4001b8:	20040003 	addi	a0,zero,3
  4001bc:	0c10073b 	jal	401cec <put_char>
  4001c0:	00000000 	nop
  4001c4:	01002025 	move	a0,t0
  4001c8:	01202825 	move	a1,t1
  4001cc:	20a50001 	addi	a1,a1,1
  4001d0:	0c100732 	jal	401cc8 <set_cursor>
  4001d4:	00000000 	nop
  4001d8:	20040004 	addi	a0,zero,4
  4001dc:	0c10073b 	jal	401cec <put_char>
  4001e0:	00000000 	nop
  4001e4:	8fbf0000 	lw	ra,0(sp)
  4001e8:	8fb00004 	lw	s0,4(sp)
  4001ec:	8fb10008 	lw	s1,8(sp)
  4001f0:	8fa4000c 	lw	a0,12(sp)
  4001f4:	8fa50010 	lw	a1,16(sp)
  4001f8:	8fa80014 	lw	t0,20(sp)
  4001fc:	8fa90018 	lw	t1,24(sp)
  400200:	23bd001c 	addi	sp,sp,28
  400204:	03e00008 	jr	ra
  400208:	00000000 	nop

0040020c <pintarmapa>:
  40020c:	23bdffec 	addi	sp,sp,-20
  400210:	afbf0000 	sw	ra,0(sp)
  400214:	afb00004 	sw	s0,4(sp)
  400218:	afb10008 	sw	s1,8(sp)
  40021c:	afa4000c 	sw	a0,12(sp)
  400220:	afa50010 	sw	a1,16(sp)

00400224 <robotron>:
  400224:	24100001 	li	s0,1
  400228:	24110023 	li	s1,35
  40022c:	2004000f 	addi	a0,zero,15
  400230:	20050000 	addi	a1,zero,0
  400234:	0c100724 	jal	401c90 <set_color>
  400238:	00000000 	nop
  40023c:	02002025 	move	a0,s0
  400240:	02202825 	move	a1,s1
  400244:	0c100732 	jal	401cc8 <set_cursor>
  400248:	00000000 	nop
  40024c:	3c041001 	lui	a0,0x1001
  400250:	2484000c 	addiu	a0,a0,12
  400254:	0c10075c 	jal	401d70 <puts>
  400258:	00000000 	nop

0040025c <wave>:
  40025c:	2410001d 	li	s0,29
  400260:	24110025 	li	s1,37
  400264:	2004000f 	addi	a0,zero,15
  400268:	20050000 	addi	a1,zero,0
  40026c:	0c100724 	jal	401c90 <set_color>
  400270:	00000000 	nop
  400274:	02002025 	move	a0,s0
  400278:	02202825 	move	a1,s1
  40027c:	0c100732 	jal	401cc8 <set_cursor>
  400280:	00000000 	nop
  400284:	3c041001 	lui	a0,0x1001
  400288:	24840015 	addiu	a0,a0,21
  40028c:	0c10075c 	jal	401d70 <puts>
  400290:	00000000 	nop
  400294:	24100002 	li	s0,2
  400298:	2411001d 	li	s1,29

0040029c <for>:
  40029c:	20040005 	addi	a0,zero,5
  4002a0:	20050000 	addi	a1,zero,0
  4002a4:	0c100724 	jal	401c90 <set_color>
  4002a8:	00000000 	nop
  4002ac:	02002025 	move	a0,s0
  4002b0:	00002825 	move	a1,zero
  4002b4:	0c100732 	jal	401cc8 <set_cursor>
  4002b8:	00000000 	nop
  4002bc:	20040009 	addi	a0,zero,9
  4002c0:	0c10073b 	jal	401cec <put_char>
  4002c4:	00000000 	nop
  4002c8:	22100001 	addi	s0,s0,1
  4002cc:	1611fff3 	bne	s0,s1,40029c <for>
  4002d0:	00000000 	nop
  4002d4:	24100002 	li	s0,2
  4002d8:	2411001d 	li	s1,29
  4002dc:	2409004f 	li	t1,79

004002e0 <for2>:
  4002e0:	20040005 	addi	a0,zero,5
  4002e4:	20050000 	addi	a1,zero,0
  4002e8:	0c100724 	jal	401c90 <set_color>
  4002ec:	00000000 	nop
  4002f0:	02002025 	move	a0,s0
  4002f4:	01202825 	move	a1,t1
  4002f8:	0c100732 	jal	401cc8 <set_cursor>
  4002fc:	00000000 	nop
  400300:	20040009 	addi	a0,zero,9
  400304:	0c10073b 	jal	401cec <put_char>
  400308:	00000000 	nop
  40030c:	22100001 	addi	s0,s0,1
  400310:	1611fff3 	bne	s0,s1,4002e0 <for2>
  400314:	00000000 	nop
  400318:	24100001 	li	s0,1
  40031c:	2411004f 	li	s1,79
  400320:	24090002 	li	t1,2

00400324 <for3>:
  400324:	20040005 	addi	a0,zero,5
  400328:	20050000 	addi	a1,zero,0
  40032c:	0c100724 	jal	401c90 <set_color>
  400330:	00000000 	nop
  400334:	01202025 	move	a0,t1
  400338:	02002825 	move	a1,s0
  40033c:	0c100732 	jal	401cc8 <set_cursor>
  400340:	00000000 	nop
  400344:	20040010 	addi	a0,zero,16
  400348:	0c10073b 	jal	401cec <put_char>
  40034c:	00000000 	nop
  400350:	22100001 	addi	s0,s0,1
  400354:	1611fff3 	bne	s0,s1,400324 <for3>
  400358:	00000000 	nop
  40035c:	24100001 	li	s0,1
  400360:	2411004f 	li	s1,79
  400364:	2409001c 	li	t1,28

00400368 <for4>:
  400368:	20040005 	addi	a0,zero,5
  40036c:	20050000 	addi	a1,zero,0
  400370:	0c100724 	jal	401c90 <set_color>
  400374:	00000000 	nop
  400378:	01202025 	move	a0,t1
  40037c:	02002825 	move	a1,s0
  400380:	0c100732 	jal	401cc8 <set_cursor>
  400384:	00000000 	nop
  400388:	20040010 	addi	a0,zero,16
  40038c:	0c10073b 	jal	401cec <put_char>
  400390:	00000000 	nop
  400394:	22100001 	addi	s0,s0,1
  400398:	1611fff3 	bne	s0,s1,400368 <for4>
  40039c:	00000000 	nop
  4003a0:	8fbf0000 	lw	ra,0(sp)
  4003a4:	8fb00004 	lw	s0,4(sp)
  4003a8:	8fb10008 	lw	s1,8(sp)
  4003ac:	8fa4000c 	lw	a0,12(sp)
  4003b0:	8fa50010 	lw	a1,16(sp)
  4003b4:	23bd0014 	addi	sp,sp,20
  4003b8:	03e00008 	jr	ra
  4003bc:	00000000 	nop

004003c0 <perder>:
  4003c0:	23bdffe4 	addi	sp,sp,-28
  4003c4:	afbf0000 	sw	ra,0(sp)
  4003c8:	afb00004 	sw	s0,4(sp)
  4003cc:	afb10008 	sw	s1,8(sp)
  4003d0:	afa4000c 	sw	a0,12(sp)
  4003d4:	afa50010 	sw	a1,16(sp)
  4003d8:	afa80014 	sw	t0,20(sp)
  4003dc:	afa90018 	sw	t1,24(sp)

004003e0 <if1>:
  4003e0:	3c101001 	lui	s0,0x1001
  4003e4:	2610007c 	addiu	s0,s0,124
  4003e8:	8e080000 	lw	t0,0(s0)
  4003ec:	3c111001 	lui	s1,0x1001
  4003f0:	26310070 	addiu	s1,s1,112
  4003f4:	8e290000 	lw	t1,0(s1)
  4003f8:	01002025 	move	a0,t0
  4003fc:	01202825 	move	a1,t1
  400400:	10850003 	beq	a0,a1,400410 <and1>
  400404:	00000000 	nop
  400408:	0810012a 	j	4004a8 <if2>
  40040c:	00000000 	nop

00400410 <and1>:
  400410:	3c101001 	lui	s0,0x1001
  400414:	26100078 	addiu	s0,s0,120
  400418:	8e080000 	lw	t0,0(s0)
  40041c:	3c111001 	lui	s1,0x1001
  400420:	2631006c 	addiu	s1,s1,108
  400424:	8e290000 	lw	t1,0(s1)
  400428:	01002025 	move	a0,t0
  40042c:	01202825 	move	a1,t1
  400430:	108500e9 	beq	a0,a1,4007d8 <gameover>
  400434:	00000000 	nop
  400438:	08100110 	j	400440 <and1_1>
  40043c:	00000000 	nop

00400440 <and1_1>:
  400440:	3c101001 	lui	s0,0x1001
  400444:	26100078 	addiu	s0,s0,120
  400448:	8e080000 	lw	t0,0(s0)
  40044c:	3c111001 	lui	s1,0x1001
  400450:	2631006c 	addiu	s1,s1,108
  400454:	8e290000 	lw	t1,0(s1)
  400458:	00000000 	nop
  40045c:	21290001 	addi	t1,t1,1
  400460:	01002025 	move	a0,t0
  400464:	01202825 	move	a1,t1
  400468:	108500db 	beq	a0,a1,4007d8 <gameover>
  40046c:	00000000 	nop
  400470:	0810011e 	j	400478 <and1_2>
  400474:	00000000 	nop

00400478 <and1_2>:
  400478:	3c101001 	lui	s0,0x1001
  40047c:	26100078 	addiu	s0,s0,120
  400480:	8e080000 	lw	t0,0(s0)
  400484:	3c111001 	lui	s1,0x1001
  400488:	2631006c 	addiu	s1,s1,108
  40048c:	8e290000 	lw	t1,0(s1)
  400490:	00000000 	nop
  400494:	2529ffff 	addiu	t1,t1,-1
  400498:	01002025 	move	a0,t0
  40049c:	01202825 	move	a1,t1
  4004a0:	108500cd 	beq	a0,a1,4007d8 <gameover>
  4004a4:	00000000 	nop

004004a8 <if2>:
  4004a8:	3c101001 	lui	s0,0x1001
  4004ac:	2610007c 	addiu	s0,s0,124
  4004b0:	8e080000 	lw	t0,0(s0)
  4004b4:	3c111001 	lui	s1,0x1001
  4004b8:	26310068 	addiu	s1,s1,104
  4004bc:	8e290000 	lw	t1,0(s1)
  4004c0:	01002025 	move	a0,t0
  4004c4:	01202825 	move	a1,t1
  4004c8:	10850003 	beq	a0,a1,4004d8 <and2>
  4004cc:	00000000 	nop
  4004d0:	0810015c 	j	400570 <if3>
  4004d4:	00000000 	nop

004004d8 <and2>:
  4004d8:	3c101001 	lui	s0,0x1001
  4004dc:	26100078 	addiu	s0,s0,120
  4004e0:	8e080000 	lw	t0,0(s0)
  4004e4:	3c111001 	lui	s1,0x1001
  4004e8:	26310064 	addiu	s1,s1,100
  4004ec:	8e290000 	lw	t1,0(s1)
  4004f0:	01002025 	move	a0,t0
  4004f4:	01202825 	move	a1,t1
  4004f8:	108500b7 	beq	a0,a1,4007d8 <gameover>
  4004fc:	00000000 	nop
  400500:	08100142 	j	400508 <and2_1>
  400504:	00000000 	nop

00400508 <and2_1>:
  400508:	3c101001 	lui	s0,0x1001
  40050c:	26100078 	addiu	s0,s0,120
  400510:	8e080000 	lw	t0,0(s0)
  400514:	3c111001 	lui	s1,0x1001
  400518:	26310064 	addiu	s1,s1,100
  40051c:	8e290000 	lw	t1,0(s1)
  400520:	00000000 	nop
  400524:	21290001 	addi	t1,t1,1
  400528:	01002025 	move	a0,t0
  40052c:	01202825 	move	a1,t1
  400530:	108500a9 	beq	a0,a1,4007d8 <gameover>
  400534:	00000000 	nop
  400538:	08100150 	j	400540 <and2_2>
  40053c:	00000000 	nop

00400540 <and2_2>:
  400540:	3c101001 	lui	s0,0x1001
  400544:	26100078 	addiu	s0,s0,120
  400548:	8e080000 	lw	t0,0(s0)
  40054c:	3c111001 	lui	s1,0x1001
  400550:	26310064 	addiu	s1,s1,100
  400554:	8e290000 	lw	t1,0(s1)
  400558:	00000000 	nop
  40055c:	2529ffff 	addiu	t1,t1,-1
  400560:	01002025 	move	a0,t0
  400564:	01202825 	move	a1,t1
  400568:	1085009b 	beq	a0,a1,4007d8 <gameover>
  40056c:	00000000 	nop

00400570 <if3>:
  400570:	3c101001 	lui	s0,0x1001
  400574:	2610007c 	addiu	s0,s0,124
  400578:	8e080000 	lw	t0,0(s0)
  40057c:	3c111001 	lui	s1,0x1001
  400580:	26310060 	addiu	s1,s1,96
  400584:	8e290000 	lw	t1,0(s1)
  400588:	01002025 	move	a0,t0
  40058c:	01202825 	move	a1,t1
  400590:	10850003 	beq	a0,a1,4005a0 <and3>
  400594:	00000000 	nop
  400598:	0810018e 	j	400638 <if4>
  40059c:	00000000 	nop

004005a0 <and3>:
  4005a0:	3c101001 	lui	s0,0x1001
  4005a4:	26100078 	addiu	s0,s0,120
  4005a8:	8e080000 	lw	t0,0(s0)
  4005ac:	3c111001 	lui	s1,0x1001
  4005b0:	2631005c 	addiu	s1,s1,92
  4005b4:	8e290000 	lw	t1,0(s1)
  4005b8:	01002025 	move	a0,t0
  4005bc:	01202825 	move	a1,t1
  4005c0:	10850085 	beq	a0,a1,4007d8 <gameover>
  4005c4:	00000000 	nop
  4005c8:	08100174 	j	4005d0 <and3_1>
  4005cc:	00000000 	nop

004005d0 <and3_1>:
  4005d0:	3c101001 	lui	s0,0x1001
  4005d4:	26100078 	addiu	s0,s0,120
  4005d8:	8e080000 	lw	t0,0(s0)
  4005dc:	3c111001 	lui	s1,0x1001
  4005e0:	2631005c 	addiu	s1,s1,92
  4005e4:	8e290000 	lw	t1,0(s1)
  4005e8:	00000000 	nop
  4005ec:	21290001 	addi	t1,t1,1
  4005f0:	01002025 	move	a0,t0
  4005f4:	01202825 	move	a1,t1
  4005f8:	10850077 	beq	a0,a1,4007d8 <gameover>
  4005fc:	00000000 	nop
  400600:	08100182 	j	400608 <and3_2>
  400604:	00000000 	nop

00400608 <and3_2>:
  400608:	3c101001 	lui	s0,0x1001
  40060c:	26100078 	addiu	s0,s0,120
  400610:	8e080000 	lw	t0,0(s0)
  400614:	3c111001 	lui	s1,0x1001
  400618:	2631005c 	addiu	s1,s1,92
  40061c:	8e290000 	lw	t1,0(s1)
  400620:	00000000 	nop
  400624:	2529ffff 	addiu	t1,t1,-1
  400628:	01002025 	move	a0,t0
  40062c:	01202825 	move	a1,t1
  400630:	10850069 	beq	a0,a1,4007d8 <gameover>
  400634:	00000000 	nop

00400638 <if4>:
  400638:	3c101001 	lui	s0,0x1001
  40063c:	2610007c 	addiu	s0,s0,124
  400640:	8e080000 	lw	t0,0(s0)
  400644:	3c111001 	lui	s1,0x1001
  400648:	26310058 	addiu	s1,s1,88
  40064c:	8e290000 	lw	t1,0(s1)
  400650:	01002025 	move	a0,t0
  400654:	01202825 	move	a1,t1
  400658:	10850003 	beq	a0,a1,400668 <and4>
  40065c:	00000000 	nop
  400660:	081001c0 	j	400700 <if5>
  400664:	00000000 	nop

00400668 <and4>:
  400668:	3c101001 	lui	s0,0x1001
  40066c:	26100078 	addiu	s0,s0,120
  400670:	8e080000 	lw	t0,0(s0)
  400674:	3c111001 	lui	s1,0x1001
  400678:	26310054 	addiu	s1,s1,84
  40067c:	8e290000 	lw	t1,0(s1)
  400680:	01002025 	move	a0,t0
  400684:	01202825 	move	a1,t1
  400688:	10850053 	beq	a0,a1,4007d8 <gameover>
  40068c:	00000000 	nop
  400690:	081001a6 	j	400698 <and4_1>
  400694:	00000000 	nop

00400698 <and4_1>:
  400698:	3c101001 	lui	s0,0x1001
  40069c:	26100078 	addiu	s0,s0,120
  4006a0:	8e080000 	lw	t0,0(s0)
  4006a4:	3c111001 	lui	s1,0x1001
  4006a8:	26310054 	addiu	s1,s1,84
  4006ac:	8e290000 	lw	t1,0(s1)
  4006b0:	00000000 	nop
  4006b4:	21290001 	addi	t1,t1,1
  4006b8:	01002025 	move	a0,t0
  4006bc:	01202825 	move	a1,t1
  4006c0:	10850045 	beq	a0,a1,4007d8 <gameover>
  4006c4:	00000000 	nop
  4006c8:	081001b4 	j	4006d0 <and4_2>
  4006cc:	00000000 	nop

004006d0 <and4_2>:
  4006d0:	3c101001 	lui	s0,0x1001
  4006d4:	26100078 	addiu	s0,s0,120
  4006d8:	8e080000 	lw	t0,0(s0)
  4006dc:	3c111001 	lui	s1,0x1001
  4006e0:	26310054 	addiu	s1,s1,84
  4006e4:	8e290000 	lw	t1,0(s1)
  4006e8:	00000000 	nop
  4006ec:	2529ffff 	addiu	t1,t1,-1
  4006f0:	01002025 	move	a0,t0
  4006f4:	01202825 	move	a1,t1
  4006f8:	10850037 	beq	a0,a1,4007d8 <gameover>
  4006fc:	00000000 	nop

00400700 <if5>:
  400700:	3c101001 	lui	s0,0x1001
  400704:	2610007c 	addiu	s0,s0,124
  400708:	8e080000 	lw	t0,0(s0)
  40070c:	3c111001 	lui	s1,0x1001
  400710:	26310050 	addiu	s1,s1,80
  400714:	8e290000 	lw	t1,0(s1)
  400718:	01002025 	move	a0,t0
  40071c:	01202825 	move	a1,t1
  400720:	10850004 	beq	a0,a1,400734 <and5>
  400724:	00000000 	nop
  400728:	24020000 	li	v0,0
  40072c:	08100207 	j	40081c <end>
  400730:	00000000 	nop

00400734 <and5>:
  400734:	3c101001 	lui	s0,0x1001
  400738:	26100078 	addiu	s0,s0,120
  40073c:	8e080000 	lw	t0,0(s0)
  400740:	3c111001 	lui	s1,0x1001
  400744:	2631004c 	addiu	s1,s1,76
  400748:	8e290000 	lw	t1,0(s1)
  40074c:	01002025 	move	a0,t0
  400750:	01202825 	move	a1,t1
  400754:	10850020 	beq	a0,a1,4007d8 <gameover>
  400758:	00000000 	nop
  40075c:	081001d9 	j	400764 <and5_1>
  400760:	00000000 	nop

00400764 <and5_1>:
  400764:	3c101001 	lui	s0,0x1001
  400768:	26100078 	addiu	s0,s0,120
  40076c:	8e080000 	lw	t0,0(s0)
  400770:	3c111001 	lui	s1,0x1001
  400774:	2631004c 	addiu	s1,s1,76
  400778:	8e290000 	lw	t1,0(s1)
  40077c:	00000000 	nop
  400780:	21290001 	addi	t1,t1,1
  400784:	01002025 	move	a0,t0
  400788:	01202825 	move	a1,t1
  40078c:	10850012 	beq	a0,a1,4007d8 <gameover>
  400790:	00000000 	nop
  400794:	081001e7 	j	40079c <and5_2>
  400798:	00000000 	nop

0040079c <and5_2>:
  40079c:	3c101001 	lui	s0,0x1001
  4007a0:	26100078 	addiu	s0,s0,120
  4007a4:	8e080000 	lw	t0,0(s0)
  4007a8:	3c111001 	lui	s1,0x1001
  4007ac:	2631004c 	addiu	s1,s1,76
  4007b0:	8e290000 	lw	t1,0(s1)
  4007b4:	00000000 	nop
  4007b8:	2529ffff 	addiu	t1,t1,-1
  4007bc:	01002025 	move	a0,t0
  4007c0:	01202825 	move	a1,t1
  4007c4:	10850004 	beq	a0,a1,4007d8 <gameover>
  4007c8:	00000000 	nop
  4007cc:	24020000 	li	v0,0
  4007d0:	08100207 	j	40081c <end>
  4007d4:	00000000 	nop

004007d8 <gameover>:
  4007d8:	0c10076a 	jal	401da8 <clear_screen>
  4007dc:	00000000 	nop
  4007e0:	20040004 	addi	a0,zero,4
  4007e4:	20050000 	addi	a1,zero,0
  4007e8:	0c100724 	jal	401c90 <set_color>
  4007ec:	00000000 	nop
  4007f0:	2408000e 	li	t0,14
  4007f4:	2409001b 	li	t1,27
  4007f8:	01002025 	move	a0,t0
  4007fc:	01202825 	move	a1,t1
  400800:	0c100732 	jal	401cc8 <set_cursor>
  400804:	00000000 	nop
  400808:	3c041001 	lui	a0,0x1001
  40080c:	2484001c 	addiu	a0,a0,28
  400810:	0c10075c 	jal	401d70 <puts>
  400814:	00000000 	nop
  400818:	24020001 	li	v0,1

0040081c <end>:
  40081c:	8fbf0000 	lw	ra,0(sp)
  400820:	8fb00004 	lw	s0,4(sp)
  400824:	8fb10008 	lw	s1,8(sp)
  400828:	8fa4000c 	lw	a0,12(sp)
  40082c:	8fa50010 	lw	a1,16(sp)
  400830:	8fa80014 	lw	t0,20(sp)
  400834:	8fa90018 	lw	t1,24(sp)
  400838:	23bd001c 	addi	sp,sp,28
  40083c:	03e00008 	jr	ra
  400840:	00000000 	nop

00400844 <ganar>:
  400844:	23bdfffc 	addi	sp,sp,-4
  400848:	afbf0000 	sw	ra,0(sp)
  40084c:	3c081001 	lui	t0,0x1001
  400850:	25080074 	addiu	t0,t0,116
  400854:	8d080000 	lw	t0,0(t0)
  400858:	00000000 	nop
  40085c:	01002025 	move	a0,t0
  400860:	10800003 	beqz	a0,400870 <gano>
  400864:	00000000 	nop
  400868:	0810022c 	j	4008b0 <end>
  40086c:	00000000 	nop

00400870 <gano>:
  400870:	0c10076a 	jal	401da8 <clear_screen>
  400874:	00000000 	nop
  400878:	20040002 	addi	a0,zero,2
  40087c:	20050000 	addi	a1,zero,0
  400880:	0c100724 	jal	401c90 <set_color>
  400884:	00000000 	nop
  400888:	2408000e 	li	t0,14
  40088c:	24090025 	li	t1,37
  400890:	01002025 	move	a0,t0
  400894:	01202825 	move	a1,t1
  400898:	0c100732 	jal	401cc8 <set_cursor>
  40089c:	00000000 	nop
  4008a0:	3c041001 	lui	a0,0x1001
  4008a4:	2484003e 	addiu	a0,a0,62
  4008a8:	0c10075c 	jal	401d70 <puts>
  4008ac:	00000000 	nop

004008b0 <end>:
  4008b0:	8fbf0000 	lw	ra,0(sp)
  4008b4:	23bd0004 	addi	sp,sp,4
  4008b8:	03e00008 	jr	ra
  4008bc:	00000000 	nop

004008c0 <main>:
  4008c0:	27bdffa8 	addiu	sp,sp,-88
  4008c4:	afbf0054 	sw	ra,84(sp)
  4008c8:	afb40040 	sw	s4,64(sp)
  4008cc:	afb3003c 	sw	s3,60(sp)
  4008d0:	afb20038 	sw	s2,56(sp)
  4008d4:	afb00030 	sw	s0,48(sp)
  4008d8:	3c121001 	lui	s2,0x1001
  4008dc:	afbe0050 	sw	s8,80(sp)
  4008e0:	afb7004c 	sw	s7,76(sp)
  4008e4:	afb60048 	sw	s6,72(sp)
  4008e8:	afb50044 	sw	s5,68(sp)
  4008ec:	afb10034 	sw	s1,52(sp)
  4008f0:	0c100004 	jal	400010 <pintarobots>
  4008f4:	0c100083 	jal	40020c <pintarmapa>
  4008f8:	24020027 	li	v0,39
  4008fc:	3c101001 	lui	s0,0x1001
  400900:	ae420078 	sw	v0,120(s2)
  400904:	3c131001 	lui	s3,0x1001
  400908:	2402000e 	li	v0,14
  40090c:	00002825 	move	a1,zero
  400910:	24040007 	li	a0,7
  400914:	ae62007c 	sw	v0,124(s3)
  400918:	ae0000b8 	sw	zero,184(s0)
  40091c:	0c100724 	jal	401c90 <set_color>
  400920:	9245007b 	lbu	a1,123(s2)
  400924:	9264007f 	lbu	a0,127(s3)
  400928:	3c020708 	lui	v0,0x708
  40092c:	afa20010 	sw	v0,16(sp)
  400930:	a7a00014 	sh	zero,20(sp)
  400934:	0c100732 	jal	401cc8 <set_cursor>
  400938:	27a40010 	addiu	a0,sp,16
  40093c:	0c10075c 	jal	401d70 <puts>
  400940:	0c1006f5 	jal	401bd4 <keypad_init>
  400944:	afb00028 	sw	s0,40(sp)
  400948:	3c021001 	lui	v0,0x1001
  40094c:	3c101001 	lui	s0,0x1001
  400950:	26140000 	addiu	s4,s0,0
  400954:	afa20018 	sw	v0,24(sp)
  400958:	0c1006f9 	jal	401be4 <keypad_getkey>
  40095c:	00002825 	move	a1,zero
  400960:	24040007 	li	a0,7
  400964:	afa2001c 	sw	v0,28(sp)
  400968:	0c100724 	jal	401c90 <set_color>
  40096c:	8fa2001c 	lw	v0,28(sp)
  400970:	24030001 	li	v1,1
  400974:	1443008f 	bne	v0,v1,400bb4 <main+0x2f4>
  400978:	8e450078 	lw	a1,120(s2)
  40097c:	24020002 	li	v0,2
  400980:	10a20015 	beq	a1,v0,4009d8 <main+0x118>
  400984:	8fa20028 	lw	v0,40(sp)
  400988:	9264007f 	lbu	a0,127(s3)
  40098c:	30a500ff 	andi	a1,a1,0xff
  400990:	ac4300b8 	sw	v1,184(v0)
  400994:	0c100732 	jal	401cc8 <set_cursor>
  400998:	02802025 	move	a0,s4
  40099c:	0c10075c 	jal	401d70 <puts>
  4009a0:	8e450078 	lw	a1,120(s2)
  4009a4:	24a5ffff 	addiu	a1,a1,-1
  4009a8:	9264007f 	lbu	a0,127(s3)
  4009ac:	ae450078 	sw	a1,120(s2)
  4009b0:	30a500ff 	andi	a1,a1,0xff
  4009b4:	0c100732 	jal	401cc8 <set_cursor>
  4009b8:	27a40010 	addiu	a0,sp,16
  4009bc:	0c10075c 	jal	401d70 <puts>
  4009c0:	8e63007c 	lw	v1,124(s3)
  4009c4:	3c021001 	lui	v0,0x1001
  4009c8:	ac4300bc 	sw	v1,188(v0)
  4009cc:	8e430078 	lw	v1,120(s2)
  4009d0:	3c021001 	lui	v0,0x1001
  4009d4:	ac4300c0 	sw	v1,192(v0)
  4009d8:	8fa20028 	lw	v0,40(sp)
  4009dc:	3c041001 	lui	a0,0x1001
  4009e0:	8c4300b8 	lw	v1,184(v0)
  4009e4:	24020003 	li	v0,3
  4009e8:	3c1e1001 	lui	s8,0x1001
  4009ec:	3c111001 	lui	s1,0x1001
  4009f0:	afa40020 	sw	a0,32(sp)
  4009f4:	3c151001 	lui	s5,0x1001
  4009f8:	3c161001 	lui	s6,0x1001
  4009fc:	3c171001 	lui	s7,0x1001
  400a00:	146200a0 	bne	v1,v0,400c84 <main+0x3c4>
  400a04:	8fa3001c 	lw	v1,28(sp)
  400a08:	24020008 	li	v0,8
  400a0c:	1462009d 	bne	v1,v0,400c84 <main+0x3c4>
  400a10:	3c021001 	lui	v0,0x1001
  400a14:	3c031001 	lui	v1,0x1001
  400a18:	8c630098 	lw	v1,152(v1)
  400a1c:	8c42009c 	lw	v0,156(v0)
  400a20:	00431025 	or	v0,v0,v1
  400a24:	8fc30094 	lw	v1,148(s8)
  400a28:	00431025 	or	v0,v0,v1
  400a2c:	14400095 	bnez	v0,400c84 <main+0x3c4>
  400a30:	8fa20018 	lw	v0,24(sp)
  400a34:	24030001 	li	v1,1
  400a38:	ac4300a0 	sw	v1,160(v0)
  400a3c:	3c021001 	lui	v0,0x1001
  400a40:	8c4200bc 	lw	v0,188(v0)
  400a44:	3c031001 	lui	v1,0x1001
  400a48:	24420001 	addiu	v0,v0,1
  400a4c:	ac620090 	sw	v0,144(v1)
  400a50:	3c021001 	lui	v0,0x1001
  400a54:	8c4300c0 	lw	v1,192(v0)
  400a58:	3c021001 	lui	v0,0x1001
  400a5c:	ac43008c 	sw	v1,140(v0)
  400a60:	3c021001 	lui	v0,0x1001
  400a64:	3c031001 	lui	v1,0x1001
  400a68:	ac40009c 	sw	zero,156(v0)
  400a6c:	3c021001 	lui	v0,0x1001
  400a70:	ac400098 	sw	zero,152(v0)
  400a74:	8c620090 	lw	v0,144(v1)
  400a78:	afc00094 	sw	zero,148(s8)
  400a7c:	2842001c 	slti	v0,v0,28
  400a80:	afa30024 	sw	v1,36(sp)
  400a84:	10400083 	beqz	v0,400c94 <main+0x3d4>
  400a88:	2404000a 	li	a0,10
  400a8c:	0c1006ea 	jal	401ba8 <delay_ms>
  400a90:	9245007b 	lbu	a1,123(s2)
  400a94:	9264007f 	lbu	a0,127(s3)
  400a98:	0c100732 	jal	401cc8 <set_cursor>
  400a9c:	27a40010 	addiu	a0,sp,16
  400aa0:	0c10075c 	jal	401d70 <puts>
  400aa4:	8fa20024 	lw	v0,36(sp)
  400aa8:	3c031001 	lui	v1,0x1001
  400aac:	9065008f 	lbu	a1,143(v1)
  400ab0:	90440093 	lbu	a0,147(v0)
  400ab4:	afa30020 	sw	v1,32(sp)
  400ab8:	0c100732 	jal	401cc8 <set_cursor>
  400abc:	02802025 	move	a0,s4
  400ac0:	0c10075c 	jal	401d70 <puts>
  400ac4:	8fa20024 	lw	v0,36(sp)
  400ac8:	8fa30020 	lw	v1,32(sp)
  400acc:	8c440090 	lw	a0,144(v0)
  400ad0:	9065008f 	lbu	a1,143(v1)
  400ad4:	24840001 	addiu	a0,a0,1
  400ad8:	ac440090 	sw	a0,144(v0)
  400adc:	308400ff 	andi	a0,a0,0xff
  400ae0:	0c100732 	jal	401cc8 <set_cursor>
  400ae4:	3c041001 	lui	a0,0x1001
  400ae8:	24840004 	addiu	a0,a0,4
  400aec:	0c10075c 	jal	401d70 <puts>
  400af0:	8fa20024 	lw	v0,36(sp)
  400af4:	3c031001 	lui	v1,0x1001
  400af8:	8c420090 	lw	v0,144(v0)
  400afc:	8c640070 	lw	a0,112(v1)
  400b00:	144400c9 	bne	v0,a0,400e28 <main+0x568>
  400b04:	8fa30020 	lw	v1,32(sp)
  400b08:	8c66008c 	lw	a2,140(v1)
  400b0c:	3c031001 	lui	v1,0x1001
  400b10:	8c65006c 	lw	a1,108(v1)
  400b14:	10c50004 	beq	a2,a1,400b28 <main+0x268>
  400b18:	24a70001 	addiu	a3,a1,1
  400b1c:	10c70002 	beq	a2,a3,400b28 <main+0x268>
  400b20:	24a7ffff 	addiu	a3,a1,-1
  400b24:	14c700c0 	bne	a2,a3,400e28 <main+0x568>
  400b28:	30a500ff 	andi	a1,a1,0xff
  400b2c:	308400ff 	andi	a0,a0,0xff
  400b30:	afa3002c 	sw	v1,44(sp)
  400b34:	0c100732 	jal	401cc8 <set_cursor>
  400b38:	26040000 	addiu	a0,s0,0
  400b3c:	0c10075c 	jal	401d70 <puts>
  400b40:	8fa3002c 	lw	v1,44(sp)
  400b44:	3c021001 	lui	v0,0x1001
  400b48:	ac400070 	sw	zero,112(v0)
  400b4c:	ac60006c 	sw	zero,108(v1)
  400b50:	8e220074 	lw	v0,116(s1)
  400b54:	2442ffff 	addiu	v0,v0,-1
  400b58:	ae220074 	sw	v0,116(s1)
  400b5c:	8fa20020 	lw	v0,32(sp)
  400b60:	9045008f 	lbu	a1,143(v0)
  400b64:	8fa20024 	lw	v0,36(sp)
  400b68:	90440093 	lbu	a0,147(v0)
  400b6c:	0c100732 	jal	401cc8 <set_cursor>
  400b70:	26040000 	addiu	a0,s0,0
  400b74:	0c10075c 	jal	401d70 <puts>
  400b78:	8fa20018 	lw	v0,24(sp)
  400b7c:	ac4000a0 	sw	zero,160(v0)
  400b80:	8fa20024 	lw	v0,36(sp)
  400b84:	8c430090 	lw	v1,144(v0)
  400b88:	2402001b 	li	v0,27
  400b8c:	14620041 	bne	v1,v0,400c94 <main+0x3d4>
  400b90:	8fa20018 	lw	v0,24(sp)
  400b94:	2404001b 	li	a0,27
  400b98:	ac4000a0 	sw	zero,160(v0)
  400b9c:	8fa20020 	lw	v0,32(sp)
  400ba0:	9045008f 	lbu	a1,143(v0)
  400ba4:	0c100732 	jal	401cc8 <set_cursor>
  400ba8:	26040000 	addiu	a0,s0,0
  400bac:	0c10075c 	jal	401d70 <puts>
  400bb0:	10000038 	b	400c94 <main+0x3d4>
  400bb4:	8fa3001c 	lw	v1,28(sp)
  400bb8:	24020002 	li	v0,2
  400bbc:	10620012 	beq	v1,v0,400c08 <main+0x348>
  400bc0:	24020003 	li	v0,3
  400bc4:	1062001e 	beq	v1,v0,400c40 <main+0x380>
  400bc8:	8fa4001c 	lw	a0,28(sp)
  400bcc:	24030004 	li	v1,4
  400bd0:	1483ff81 	bne	a0,v1,4009d8 <main+0x118>
  400bd4:	8e64007c 	lw	a0,124(s3)
  400bd8:	1082ff7f 	beq	a0,v0,4009d8 <main+0x118>
  400bdc:	8fa20028 	lw	v0,40(sp)
  400be0:	8fa3001c 	lw	v1,28(sp)
  400be4:	9245007b 	lbu	a1,123(s2)
  400be8:	308400ff 	andi	a0,a0,0xff
  400bec:	ac4300b8 	sw	v1,184(v0)
  400bf0:	0c100732 	jal	401cc8 <set_cursor>
  400bf4:	02802025 	move	a0,s4
  400bf8:	0c10075c 	jal	401d70 <puts>
  400bfc:	8e64007c 	lw	a0,124(s3)
  400c00:	2484ffff 	addiu	a0,a0,-1
  400c04:	1000001b 	b	400c74 <main+0x3b4>
  400c08:	8e450078 	lw	a1,120(s2)
  400c0c:	2402004d 	li	v0,77
  400c10:	10a2ff71 	beq	a1,v0,4009d8 <main+0x118>
  400c14:	8fa20028 	lw	v0,40(sp)
  400c18:	8fa3001c 	lw	v1,28(sp)
  400c1c:	9264007f 	lbu	a0,127(s3)
  400c20:	30a500ff 	andi	a1,a1,0xff
  400c24:	ac4300b8 	sw	v1,184(v0)
  400c28:	0c100732 	jal	401cc8 <set_cursor>
  400c2c:	02802025 	move	a0,s4
  400c30:	0c10075c 	jal	401d70 <puts>
  400c34:	8e450078 	lw	a1,120(s2)
  400c38:	24a50001 	addiu	a1,a1,1
  400c3c:	1000ff5a 	b	4009a8 <main+0xe8>
  400c40:	8e64007c 	lw	a0,124(s3)
  400c44:	2402001b 	li	v0,27
  400c48:	1082ff63 	beq	a0,v0,4009d8 <main+0x118>
  400c4c:	8fa20028 	lw	v0,40(sp)
  400c50:	8fa3001c 	lw	v1,28(sp)
  400c54:	9245007b 	lbu	a1,123(s2)
  400c58:	308400ff 	andi	a0,a0,0xff
  400c5c:	ac4300b8 	sw	v1,184(v0)
  400c60:	0c100732 	jal	401cc8 <set_cursor>
  400c64:	02802025 	move	a0,s4
  400c68:	0c10075c 	jal	401d70 <puts>
  400c6c:	8e64007c 	lw	a0,124(s3)
  400c70:	24840001 	addiu	a0,a0,1
  400c74:	ae64007c 	sw	a0,124(s3)
  400c78:	9245007b 	lbu	a1,123(s2)
  400c7c:	308400ff 	andi	a0,a0,0xff
  400c80:	1000ff4c 	b	4009b4 <main+0xf4>
  400c84:	8fa20018 	lw	v0,24(sp)
  400c88:	24030001 	li	v1,1
  400c8c:	8c4200a0 	lw	v0,160(v0)
  400c90:	1043ff73 	beq	v0,v1,400a60 <main+0x1a0>
  400c94:	8fa20028 	lw	v0,40(sp)
  400c98:	8c4300b8 	lw	v1,184(v0)
  400c9c:	24020004 	li	v0,4
  400ca0:	146200b7 	bne	v1,v0,400f80 <main+0x6c0>
  400ca4:	8fa3001c 	lw	v1,28(sp)
  400ca8:	24020008 	li	v0,8
  400cac:	146200b4 	bne	v1,v0,400f80 <main+0x6c0>
  400cb0:	8fa20018 	lw	v0,24(sp)
  400cb4:	3c031001 	lui	v1,0x1001
  400cb8:	8c630098 	lw	v1,152(v1)
  400cbc:	8c4200a0 	lw	v0,160(v0)
  400cc0:	00431025 	or	v0,v0,v1
  400cc4:	8fc30094 	lw	v1,148(s8)
  400cc8:	00431025 	or	v0,v0,v1
  400ccc:	144000ac 	bnez	v0,400f80 <main+0x6c0>
  400cd0:	3c021001 	lui	v0,0x1001
  400cd4:	24030001 	li	v1,1
  400cd8:	ac43009c 	sw	v1,156(v0)
  400cdc:	3c021001 	lui	v0,0x1001
  400ce0:	8c4200bc 	lw	v0,188(v0)
  400ce4:	3c031001 	lui	v1,0x1001
  400ce8:	2442ffff 	addiu	v0,v0,-1
  400cec:	ac620090 	sw	v0,144(v1)
  400cf0:	3c021001 	lui	v0,0x1001
  400cf4:	8c4300c0 	lw	v1,192(v0)
  400cf8:	3c021001 	lui	v0,0x1001
  400cfc:	ac43008c 	sw	v1,140(v0)
  400d00:	8fa20018 	lw	v0,24(sp)
  400d04:	afc00094 	sw	zero,148(s8)
  400d08:	ac4000a0 	sw	zero,160(v0)
  400d0c:	3c021001 	lui	v0,0x1001
  400d10:	ac400098 	sw	zero,152(v0)
  400d14:	3c021001 	lui	v0,0x1001
  400d18:	8c4200bc 	lw	v0,188(v0)
  400d1c:	28420004 	slti	v0,v0,4
  400d20:	1440009b 	bnez	v0,400f90 <main+0x6d0>
  400d24:	2404000a 	li	a0,10
  400d28:	0c1006ea 	jal	401ba8 <delay_ms>
  400d2c:	9245007b 	lbu	a1,123(s2)
  400d30:	9264007f 	lbu	a0,127(s3)
  400d34:	0c100732 	jal	401cc8 <set_cursor>
  400d38:	27a40010 	addiu	a0,sp,16
  400d3c:	0c10075c 	jal	401d70 <puts>
  400d40:	3c021001 	lui	v0,0x1001
  400d44:	3c061001 	lui	a2,0x1001
  400d48:	9045008f 	lbu	a1,143(v0)
  400d4c:	90c40093 	lbu	a0,147(a2)
  400d50:	afa20024 	sw	v0,36(sp)
  400d54:	afa60020 	sw	a2,32(sp)
  400d58:	0c100732 	jal	401cc8 <set_cursor>
  400d5c:	02802025 	move	a0,s4
  400d60:	0c10075c 	jal	401d70 <puts>
  400d64:	8fa60020 	lw	a2,32(sp)
  400d68:	8fa20024 	lw	v0,36(sp)
  400d6c:	8cc40090 	lw	a0,144(a2)
  400d70:	9045008f 	lbu	a1,143(v0)
  400d74:	2484ffff 	addiu	a0,a0,-1
  400d78:	acc40090 	sw	a0,144(a2)
  400d7c:	308400ff 	andi	a0,a0,0xff
  400d80:	0c100732 	jal	401cc8 <set_cursor>
  400d84:	3c041001 	lui	a0,0x1001
  400d88:	24840004 	addiu	a0,a0,4
  400d8c:	0c10075c 	jal	401d70 <puts>
  400d90:	8fa60020 	lw	a2,32(sp)
  400d94:	3c021001 	lui	v0,0x1001
  400d98:	8c440070 	lw	a0,112(v0)
  400d9c:	8cc30090 	lw	v1,144(a2)
  400da0:	8fa20024 	lw	v0,36(sp)
  400da4:	146400e2 	bne	v1,a0,401130 <main+0x870>
  400da8:	3c061001 	lui	a2,0x1001
  400dac:	8c47008c 	lw	a3,140(v0)
  400db0:	8cc5006c 	lw	a1,108(a2)
  400db4:	10e50004 	beq	a3,a1,400dc8 <main+0x508>
  400db8:	24a80001 	addiu	t0,a1,1
  400dbc:	10e80002 	beq	a3,t0,400dc8 <main+0x508>
  400dc0:	24a8ffff 	addiu	t0,a1,-1
  400dc4:	14e800da 	bne	a3,t0,401130 <main+0x870>
  400dc8:	30a500ff 	andi	a1,a1,0xff
  400dcc:	308400ff 	andi	a0,a0,0xff
  400dd0:	afa6002c 	sw	a2,44(sp)
  400dd4:	afa20024 	sw	v0,36(sp)
  400dd8:	0c100732 	jal	401cc8 <set_cursor>
  400ddc:	26040000 	addiu	a0,s0,0
  400de0:	0c10075c 	jal	401d70 <puts>
  400de4:	8fa6002c 	lw	a2,44(sp)
  400de8:	3c021001 	lui	v0,0x1001
  400dec:	ac400070 	sw	zero,112(v0)
  400df0:	acc0006c 	sw	zero,108(a2)
  400df4:	8fa20024 	lw	v0,36(sp)
  400df8:	8e230074 	lw	v1,116(s1)
  400dfc:	9045008f 	lbu	a1,143(v0)
  400e00:	8fa20020 	lw	v0,32(sp)
  400e04:	2463ffff 	addiu	v1,v1,-1
  400e08:	90440093 	lbu	a0,147(v0)
  400e0c:	ae230074 	sw	v1,116(s1)
  400e10:	0c100732 	jal	401cc8 <set_cursor>
  400e14:	26040000 	addiu	a0,s0,0
  400e18:	0c10075c 	jal	401d70 <puts>
  400e1c:	3c021001 	lui	v0,0x1001
  400e20:	ac40009c 	sw	zero,156(v0)
  400e24:	1000005a 	b	400f90 <main+0x6d0>
  400e28:	3c031001 	lui	v1,0x1001
  400e2c:	8c640068 	lw	a0,104(v1)
  400e30:	14440014 	bne	v0,a0,400e84 <main+0x5c4>
  400e34:	8fa30020 	lw	v1,32(sp)
  400e38:	8c66008c 	lw	a2,140(v1)
  400e3c:	3c031001 	lui	v1,0x1001
  400e40:	8c650064 	lw	a1,100(v1)
  400e44:	10c50004 	beq	a2,a1,400e58 <main+0x598>
  400e48:	24a70001 	addiu	a3,a1,1
  400e4c:	10c70002 	beq	a2,a3,400e58 <main+0x598>
  400e50:	24a7ffff 	addiu	a3,a1,-1
  400e54:	14c7000b 	bne	a2,a3,400e84 <main+0x5c4>
  400e58:	30a500ff 	andi	a1,a1,0xff
  400e5c:	308400ff 	andi	a0,a0,0xff
  400e60:	afa3002c 	sw	v1,44(sp)
  400e64:	0c100732 	jal	401cc8 <set_cursor>
  400e68:	26040000 	addiu	a0,s0,0
  400e6c:	0c10075c 	jal	401d70 <puts>
  400e70:	8fa3002c 	lw	v1,44(sp)
  400e74:	3c021001 	lui	v0,0x1001
  400e78:	ac400068 	sw	zero,104(v0)
  400e7c:	ac600064 	sw	zero,100(v1)
  400e80:	1000ff33 	b	400b50 <main+0x290>
  400e84:	8ea40060 	lw	a0,96(s5)
  400e88:	14440013 	bne	v0,a0,400ed8 <main+0x618>
  400e8c:	8fa30020 	lw	v1,32(sp)
  400e90:	8c66008c 	lw	a2,140(v1)
  400e94:	3c031001 	lui	v1,0x1001
  400e98:	8c65005c 	lw	a1,92(v1)
  400e9c:	10c50004 	beq	a2,a1,400eb0 <main+0x5f0>
  400ea0:	24a70001 	addiu	a3,a1,1
  400ea4:	10c70002 	beq	a2,a3,400eb0 <main+0x5f0>
  400ea8:	24a7ffff 	addiu	a3,a1,-1
  400eac:	14c7000a 	bne	a2,a3,400ed8 <main+0x618>
  400eb0:	30a500ff 	andi	a1,a1,0xff
  400eb4:	308400ff 	andi	a0,a0,0xff
  400eb8:	afa3002c 	sw	v1,44(sp)
  400ebc:	0c100732 	jal	401cc8 <set_cursor>
  400ec0:	26040000 	addiu	a0,s0,0
  400ec4:	0c10075c 	jal	401d70 <puts>
  400ec8:	8fa3002c 	lw	v1,44(sp)
  400ecc:	aea00060 	sw	zero,96(s5)
  400ed0:	ac60005c 	sw	zero,92(v1)
  400ed4:	1000ff1e 	b	400b50 <main+0x290>
  400ed8:	8ec40058 	lw	a0,88(s6)
  400edc:	14440013 	bne	v0,a0,400f2c <main+0x66c>
  400ee0:	8fa30020 	lw	v1,32(sp)
  400ee4:	8c66008c 	lw	a2,140(v1)
  400ee8:	3c031001 	lui	v1,0x1001
  400eec:	8c650054 	lw	a1,84(v1)
  400ef0:	10c50004 	beq	a2,a1,400f04 <main+0x644>
  400ef4:	24a70001 	addiu	a3,a1,1
  400ef8:	10c70002 	beq	a2,a3,400f04 <main+0x644>
  400efc:	24a7ffff 	addiu	a3,a1,-1
  400f00:	14c7000a 	bne	a2,a3,400f2c <main+0x66c>
  400f04:	30a500ff 	andi	a1,a1,0xff
  400f08:	308400ff 	andi	a0,a0,0xff
  400f0c:	afa3002c 	sw	v1,44(sp)
  400f10:	0c100732 	jal	401cc8 <set_cursor>
  400f14:	26040000 	addiu	a0,s0,0
  400f18:	0c10075c 	jal	401d70 <puts>
  400f1c:	8fa3002c 	lw	v1,44(sp)
  400f20:	aec00058 	sw	zero,88(s6)
  400f24:	ac600054 	sw	zero,84(v1)
  400f28:	1000ff09 	b	400b50 <main+0x290>
  400f2c:	8ee40050 	lw	a0,80(s7)
  400f30:	1444ff13 	bne	v0,a0,400b80 <main+0x2c0>
  400f34:	8fa20020 	lw	v0,32(sp)
  400f38:	8c43008c 	lw	v1,140(v0)
  400f3c:	3c021001 	lui	v0,0x1001
  400f40:	8c45004c 	lw	a1,76(v0)
  400f44:	10650004 	beq	v1,a1,400f58 <main+0x698>
  400f48:	24a60001 	addiu	a2,a1,1
  400f4c:	10660002 	beq	v1,a2,400f58 <main+0x698>
  400f50:	24a6ffff 	addiu	a2,a1,-1
  400f54:	1466ff0a 	bne	v1,a2,400b80 <main+0x2c0>
  400f58:	30a500ff 	andi	a1,a1,0xff
  400f5c:	308400ff 	andi	a0,a0,0xff
  400f60:	afa2002c 	sw	v0,44(sp)
  400f64:	0c100732 	jal	401cc8 <set_cursor>
  400f68:	26040000 	addiu	a0,s0,0
  400f6c:	0c10075c 	jal	401d70 <puts>
  400f70:	8fa2002c 	lw	v0,44(sp)
  400f74:	aee00050 	sw	zero,80(s7)
  400f78:	ac40004c 	sw	zero,76(v0)
  400f7c:	1000fef4 	b	400b50 <main+0x290>
  400f80:	3c021001 	lui	v0,0x1001
  400f84:	8c42009c 	lw	v0,156(v0)
  400f88:	24030001 	li	v1,1
  400f8c:	1043ff5c 	beq	v0,v1,400d00 <main+0x440>
  400f90:	8fa20028 	lw	v0,40(sp)
  400f94:	8c4300b8 	lw	v1,184(v0)
  400f98:	24020002 	li	v0,2
  400f9c:	146200c3 	bne	v1,v0,4012ac <main+0x9ec>
  400fa0:	8fa3001c 	lw	v1,28(sp)
  400fa4:	24020008 	li	v0,8
  400fa8:	146200c0 	bne	v1,v0,4012ac <main+0x9ec>
  400fac:	8fa20018 	lw	v0,24(sp)
  400fb0:	3c031001 	lui	v1,0x1001
  400fb4:	8c63009c 	lw	v1,156(v1)
  400fb8:	8c4200a0 	lw	v0,160(v0)
  400fbc:	00431025 	or	v0,v0,v1
  400fc0:	8fc30094 	lw	v1,148(s8)
  400fc4:	00431025 	or	v0,v0,v1
  400fc8:	144000b8 	bnez	v0,4012ac <main+0x9ec>
  400fcc:	3c021001 	lui	v0,0x1001
  400fd0:	24030001 	li	v1,1
  400fd4:	ac430098 	sw	v1,152(v0)
  400fd8:	3c021001 	lui	v0,0x1001
  400fdc:	8c4200c0 	lw	v0,192(v0)
  400fe0:	3c031001 	lui	v1,0x1001
  400fe4:	24420001 	addiu	v0,v0,1
  400fe8:	ac62008c 	sw	v0,140(v1)
  400fec:	3c021001 	lui	v0,0x1001
  400ff0:	8c4300bc 	lw	v1,188(v0)
  400ff4:	3c021001 	lui	v0,0x1001
  400ff8:	ac430090 	sw	v1,144(v0)
  400ffc:	8fa20018 	lw	v0,24(sp)
  401000:	afc00094 	sw	zero,148(s8)
  401004:	ac4000a0 	sw	zero,160(v0)
  401008:	3c021001 	lui	v0,0x1001
  40100c:	ac40009c 	sw	zero,156(v0)
  401010:	3c021001 	lui	v0,0x1001
  401014:	8c4200bc 	lw	v0,188(v0)
  401018:	2842004f 	slti	v0,v0,79
  40101c:	104000a7 	beqz	v0,4012bc <main+0x9fc>
  401020:	2404000a 	li	a0,10
  401024:	0c1006ea 	jal	401ba8 <delay_ms>
  401028:	9245007b 	lbu	a1,123(s2)
  40102c:	9264007f 	lbu	a0,127(s3)
  401030:	0c100732 	jal	401cc8 <set_cursor>
  401034:	27a40010 	addiu	a0,sp,16
  401038:	0c10075c 	jal	401d70 <puts>
  40103c:	3c021001 	lui	v0,0x1001
  401040:	3c061001 	lui	a2,0x1001
  401044:	9045008f 	lbu	a1,143(v0)
  401048:	90c40093 	lbu	a0,147(a2)
  40104c:	afa20024 	sw	v0,36(sp)
  401050:	afa60020 	sw	a2,32(sp)
  401054:	0c100732 	jal	401cc8 <set_cursor>
  401058:	02802025 	move	a0,s4
  40105c:	0c10075c 	jal	401d70 <puts>
  401060:	8fa20024 	lw	v0,36(sp)
  401064:	8fa60020 	lw	a2,32(sp)
  401068:	8c45008c 	lw	a1,140(v0)
  40106c:	90c40093 	lbu	a0,147(a2)
  401070:	24a50001 	addiu	a1,a1,1
  401074:	ac45008c 	sw	a1,140(v0)
  401078:	30a500ff 	andi	a1,a1,0xff
  40107c:	afa2002c 	sw	v0,44(sp)
  401080:	0c100732 	jal	401cc8 <set_cursor>
  401084:	3c041001 	lui	a0,0x1001
  401088:	24840004 	addiu	a0,a0,4
  40108c:	0c10075c 	jal	401d70 <puts>
  401090:	8fa60020 	lw	a2,32(sp)
  401094:	3c021001 	lui	v0,0x1001
  401098:	8c440070 	lw	a0,112(v0)
  40109c:	8cc30090 	lw	v1,144(a2)
  4010a0:	8fa2002c 	lw	v0,44(sp)
  4010a4:	afa60024 	sw	a2,36(sp)
  4010a8:	afa20020 	sw	v0,32(sp)
  4010ac:	146400eb 	bne	v1,a0,40145c <main+0xb9c>
  4010b0:	8fa20020 	lw	v0,32(sp)
  4010b4:	8c46008c 	lw	a2,140(v0)
  4010b8:	3c021001 	lui	v0,0x1001
  4010bc:	8c45006c 	lw	a1,108(v0)
  4010c0:	10c50004 	beq	a2,a1,4010d4 <main+0x814>
  4010c4:	24a70001 	addiu	a3,a1,1
  4010c8:	10c70002 	beq	a2,a3,4010d4 <main+0x814>
  4010cc:	24a7ffff 	addiu	a3,a1,-1
  4010d0:	14c700e2 	bne	a2,a3,40145c <main+0xb9c>
  4010d4:	30a500ff 	andi	a1,a1,0xff
  4010d8:	308400ff 	andi	a0,a0,0xff
  4010dc:	afa2002c 	sw	v0,44(sp)
  4010e0:	0c100732 	jal	401cc8 <set_cursor>
  4010e4:	26040000 	addiu	a0,s0,0
  4010e8:	0c10075c 	jal	401d70 <puts>
  4010ec:	3c021001 	lui	v0,0x1001
  4010f0:	ac400070 	sw	zero,112(v0)
  4010f4:	8fa2002c 	lw	v0,44(sp)
  4010f8:	ac40006c 	sw	zero,108(v0)
  4010fc:	8e220074 	lw	v0,116(s1)
  401100:	2442ffff 	addiu	v0,v0,-1
  401104:	ae220074 	sw	v0,116(s1)
  401108:	8fa20020 	lw	v0,32(sp)
  40110c:	9045008f 	lbu	a1,143(v0)
  401110:	8fa20024 	lw	v0,36(sp)
  401114:	90440093 	lbu	a0,147(v0)
  401118:	0c100732 	jal	401cc8 <set_cursor>
  40111c:	26040000 	addiu	a0,s0,0
  401120:	0c10075c 	jal	401d70 <puts>
  401124:	3c021001 	lui	v0,0x1001
  401128:	ac400098 	sw	zero,152(v0)
  40112c:	10000063 	b	4012bc <main+0x9fc>
  401130:	3c041001 	lui	a0,0x1001
  401134:	8c840068 	lw	a0,104(a0)
  401138:	14640014 	bne	v1,a0,40118c <main+0x8cc>
  40113c:	3c061001 	lui	a2,0x1001
  401140:	8c47008c 	lw	a3,140(v0)
  401144:	8cc50064 	lw	a1,100(a2)
  401148:	10e50004 	beq	a3,a1,40115c <main+0x89c>
  40114c:	24a80001 	addiu	t0,a1,1
  401150:	10e80002 	beq	a3,t0,40115c <main+0x89c>
  401154:	24a8ffff 	addiu	t0,a1,-1
  401158:	14e8000c 	bne	a3,t0,40118c <main+0x8cc>
  40115c:	30a500ff 	andi	a1,a1,0xff
  401160:	308400ff 	andi	a0,a0,0xff
  401164:	afa6002c 	sw	a2,44(sp)
  401168:	afa20024 	sw	v0,36(sp)
  40116c:	0c100732 	jal	401cc8 <set_cursor>
  401170:	26040000 	addiu	a0,s0,0
  401174:	0c10075c 	jal	401d70 <puts>
  401178:	8fa6002c 	lw	a2,44(sp)
  40117c:	3c021001 	lui	v0,0x1001
  401180:	ac400068 	sw	zero,104(v0)
  401184:	acc00064 	sw	zero,100(a2)
  401188:	1000ff1a 	b	400df4 <main+0x534>
  40118c:	8ea40060 	lw	a0,96(s5)
  401190:	14640013 	bne	v1,a0,4011e0 <main+0x920>
  401194:	3c061001 	lui	a2,0x1001
  401198:	8c47008c 	lw	a3,140(v0)
  40119c:	8cc5005c 	lw	a1,92(a2)
  4011a0:	10e50004 	beq	a3,a1,4011b4 <main+0x8f4>
  4011a4:	24a80001 	addiu	t0,a1,1
  4011a8:	10e80002 	beq	a3,t0,4011b4 <main+0x8f4>
  4011ac:	24a8ffff 	addiu	t0,a1,-1
  4011b0:	14e8000b 	bne	a3,t0,4011e0 <main+0x920>
  4011b4:	30a500ff 	andi	a1,a1,0xff
  4011b8:	308400ff 	andi	a0,a0,0xff
  4011bc:	afa6002c 	sw	a2,44(sp)
  4011c0:	afa20024 	sw	v0,36(sp)
  4011c4:	0c100732 	jal	401cc8 <set_cursor>
  4011c8:	26040000 	addiu	a0,s0,0
  4011cc:	0c10075c 	jal	401d70 <puts>
  4011d0:	8fa6002c 	lw	a2,44(sp)
  4011d4:	aea00060 	sw	zero,96(s5)
  4011d8:	acc0005c 	sw	zero,92(a2)
  4011dc:	1000ff05 	b	400df4 <main+0x534>
  4011e0:	8ec40058 	lw	a0,88(s6)
  4011e4:	14640013 	bne	v1,a0,401234 <main+0x974>
  4011e8:	3c061001 	lui	a2,0x1001
  4011ec:	8c47008c 	lw	a3,140(v0)
  4011f0:	8cc50054 	lw	a1,84(a2)
  4011f4:	10e50004 	beq	a3,a1,401208 <main+0x948>
  4011f8:	24a80001 	addiu	t0,a1,1
  4011fc:	10e80002 	beq	a3,t0,401208 <main+0x948>
  401200:	24a8ffff 	addiu	t0,a1,-1
  401204:	14e8000b 	bne	a3,t0,401234 <main+0x974>
  401208:	30a500ff 	andi	a1,a1,0xff
  40120c:	308400ff 	andi	a0,a0,0xff
  401210:	afa6002c 	sw	a2,44(sp)
  401214:	afa20024 	sw	v0,36(sp)
  401218:	0c100732 	jal	401cc8 <set_cursor>
  40121c:	26040000 	addiu	a0,s0,0
  401220:	0c10075c 	jal	401d70 <puts>
  401224:	8fa6002c 	lw	a2,44(sp)
  401228:	aec00058 	sw	zero,88(s6)
  40122c:	acc00054 	sw	zero,84(a2)
  401230:	1000fef0 	b	400df4 <main+0x534>
  401234:	8ee40050 	lw	a0,80(s7)
  401238:	14640013 	bne	v1,a0,401288 <main+0x9c8>
  40123c:	3c061001 	lui	a2,0x1001
  401240:	8c47008c 	lw	a3,140(v0)
  401244:	8cc5004c 	lw	a1,76(a2)
  401248:	10e50004 	beq	a3,a1,40125c <main+0x99c>
  40124c:	24a80001 	addiu	t0,a1,1
  401250:	10e80002 	beq	a3,t0,40125c <main+0x99c>
  401254:	24a8ffff 	addiu	t0,a1,-1
  401258:	14e8000b 	bne	a3,t0,401288 <main+0x9c8>
  40125c:	30a500ff 	andi	a1,a1,0xff
  401260:	308400ff 	andi	a0,a0,0xff
  401264:	afa6002c 	sw	a2,44(sp)
  401268:	afa20024 	sw	v0,36(sp)
  40126c:	0c100732 	jal	401cc8 <set_cursor>
  401270:	26040000 	addiu	a0,s0,0
  401274:	0c10075c 	jal	401d70 <puts>
  401278:	8fa6002c 	lw	a2,44(sp)
  40127c:	aee00050 	sw	zero,80(s7)
  401280:	acc0004c 	sw	zero,76(a2)
  401284:	1000fedb 	b	400df4 <main+0x534>
  401288:	24040003 	li	a0,3
  40128c:	1464ff40 	bne	v1,a0,400f90 <main+0x6d0>
  401290:	9045008f 	lbu	a1,143(v0)
  401294:	3c031001 	lui	v1,0x1001
  401298:	ac60009c 	sw	zero,156(v1)
  40129c:	0c100732 	jal	401cc8 <set_cursor>
  4012a0:	26040000 	addiu	a0,s0,0
  4012a4:	0c10075c 	jal	401d70 <puts>
  4012a8:	1000ff39 	b	400f90 <main+0x6d0>
  4012ac:	3c021001 	lui	v0,0x1001
  4012b0:	8c420098 	lw	v0,152(v0)
  4012b4:	24030001 	li	v1,1
  4012b8:	1043ff50 	beq	v0,v1,400ffc <main+0x73c>
  4012bc:	8fa20028 	lw	v0,40(sp)
  4012c0:	24030001 	li	v1,1
  4012c4:	8c4200b8 	lw	v0,184(v0)
  4012c8:	144300be 	bne	v0,v1,4015c4 <main+0xd04>
  4012cc:	8fa3001c 	lw	v1,28(sp)
  4012d0:	24020008 	li	v0,8
  4012d4:	146200bb 	bne	v1,v0,4015c4 <main+0xd04>
  4012d8:	8fa20018 	lw	v0,24(sp)
  4012dc:	3c031001 	lui	v1,0x1001
  4012e0:	8c63009c 	lw	v1,156(v1)
  4012e4:	8c4200a0 	lw	v0,160(v0)
  4012e8:	00431025 	or	v0,v0,v1
  4012ec:	3c031001 	lui	v1,0x1001
  4012f0:	8c630098 	lw	v1,152(v1)
  4012f4:	00431025 	or	v0,v0,v1
  4012f8:	144000b2 	bnez	v0,4015c4 <main+0xd04>
  4012fc:	24020001 	li	v0,1
  401300:	afc20094 	sw	v0,148(s8)
  401304:	3c021001 	lui	v0,0x1001
  401308:	8c4200c0 	lw	v0,192(v0)
  40130c:	3c031001 	lui	v1,0x1001
  401310:	2442ffff 	addiu	v0,v0,-1
  401314:	ac62008c 	sw	v0,140(v1)
  401318:	3c021001 	lui	v0,0x1001
  40131c:	8c4300bc 	lw	v1,188(v0)
  401320:	3c021001 	lui	v0,0x1001
  401324:	ac430090 	sw	v1,144(v0)
  401328:	8fa20018 	lw	v0,24(sp)
  40132c:	ac4000a0 	sw	zero,160(v0)
  401330:	3c021001 	lui	v0,0x1001
  401334:	ac40009c 	sw	zero,156(v0)
  401338:	3c021001 	lui	v0,0x1001
  40133c:	ac400098 	sw	zero,152(v0)
  401340:	3c021001 	lui	v0,0x1001
  401344:	8c4200bc 	lw	v0,188(v0)
  401348:	28420003 	slti	v0,v0,3
  40134c:	144000a0 	bnez	v0,4015d0 <main+0xd10>
  401350:	2404000a 	li	a0,10
  401354:	0c1006ea 	jal	401ba8 <delay_ms>
  401358:	9245007b 	lbu	a1,123(s2)
  40135c:	9264007f 	lbu	a0,127(s3)
  401360:	0c100732 	jal	401cc8 <set_cursor>
  401364:	27a40010 	addiu	a0,sp,16
  401368:	0c10075c 	jal	401d70 <puts>
  40136c:	3c021001 	lui	v0,0x1001
  401370:	3c061001 	lui	a2,0x1001
  401374:	9045008f 	lbu	a1,143(v0)
  401378:	90c40093 	lbu	a0,147(a2)
  40137c:	afa20020 	sw	v0,32(sp)
  401380:	afa6001c 	sw	a2,28(sp)
  401384:	0c100732 	jal	401cc8 <set_cursor>
  401388:	02802025 	move	a0,s4
  40138c:	0c10075c 	jal	401d70 <puts>
  401390:	8fa20020 	lw	v0,32(sp)
  401394:	8fa6001c 	lw	a2,28(sp)
  401398:	8c45008c 	lw	a1,140(v0)
  40139c:	90c40093 	lbu	a0,147(a2)
  4013a0:	24a5ffff 	addiu	a1,a1,-1
  4013a4:	ac45008c 	sw	a1,140(v0)
  4013a8:	30a500ff 	andi	a1,a1,0xff
  4013ac:	afa20024 	sw	v0,36(sp)
  4013b0:	0c100732 	jal	401cc8 <set_cursor>
  4013b4:	3c041001 	lui	a0,0x1001
  4013b8:	24840004 	addiu	a0,a0,4
  4013bc:	0c10075c 	jal	401d70 <puts>
  4013c0:	8fa6001c 	lw	a2,28(sp)
  4013c4:	3c021001 	lui	v0,0x1001
  4013c8:	8c440070 	lw	a0,112(v0)
  4013cc:	8cc30090 	lw	v1,144(a2)
  4013d0:	8fa20024 	lw	v0,36(sp)
  4013d4:	afa60020 	sw	a2,32(sp)
  4013d8:	afa2001c 	sw	v0,28(sp)
  4013dc:	14640125 	bne	v1,a0,401874 <main+0xfb4>
  4013e0:	8fa2001c 	lw	v0,28(sp)
  4013e4:	8c46008c 	lw	a2,140(v0)
  4013e8:	3c021001 	lui	v0,0x1001
  4013ec:	8c45006c 	lw	a1,108(v0)
  4013f0:	10c50004 	beq	a2,a1,401404 <main+0xb44>
  4013f4:	24a70001 	addiu	a3,a1,1
  4013f8:	10c70002 	beq	a2,a3,401404 <main+0xb44>
  4013fc:	24a7ffff 	addiu	a3,a1,-1
  401400:	14c7011c 	bne	a2,a3,401874 <main+0xfb4>
  401404:	30a500ff 	andi	a1,a1,0xff
  401408:	308400ff 	andi	a0,a0,0xff
  40140c:	afa20024 	sw	v0,36(sp)
  401410:	0c100732 	jal	401cc8 <set_cursor>
  401414:	26040000 	addiu	a0,s0,0
  401418:	0c10075c 	jal	401d70 <puts>
  40141c:	3c021001 	lui	v0,0x1001
  401420:	ac400070 	sw	zero,112(v0)
  401424:	8fa20024 	lw	v0,36(sp)
  401428:	ac40006c 	sw	zero,108(v0)
  40142c:	8e220074 	lw	v0,116(s1)
  401430:	2442ffff 	addiu	v0,v0,-1
  401434:	ae220074 	sw	v0,116(s1)
  401438:	8fa2001c 	lw	v0,28(sp)
  40143c:	9045008f 	lbu	a1,143(v0)
  401440:	8fa20020 	lw	v0,32(sp)
  401444:	90440093 	lbu	a0,147(v0)
  401448:	0c100732 	jal	401cc8 <set_cursor>
  40144c:	26040000 	addiu	a0,s0,0
  401450:	0c10075c 	jal	401d70 <puts>
  401454:	afc00094 	sw	zero,148(s8)
  401458:	1000005d 	b	4015d0 <main+0xd10>
  40145c:	3c021001 	lui	v0,0x1001
  401460:	8c440068 	lw	a0,104(v0)
  401464:	8fa20020 	lw	v0,32(sp)
  401468:	8c42008c 	lw	v0,140(v0)
  40146c:	14640012 	bne	v1,a0,4014b8 <main+0xbf8>
  401470:	3c061001 	lui	a2,0x1001
  401474:	8cc50064 	lw	a1,100(a2)
  401478:	10450004 	beq	v0,a1,40148c <main+0xbcc>
  40147c:	24a70001 	addiu	a3,a1,1
  401480:	10470002 	beq	v0,a3,40148c <main+0xbcc>
  401484:	24a7ffff 	addiu	a3,a1,-1
  401488:	1447000b 	bne	v0,a3,4014b8 <main+0xbf8>
  40148c:	30a500ff 	andi	a1,a1,0xff
  401490:	308400ff 	andi	a0,a0,0xff
  401494:	afa6002c 	sw	a2,44(sp)
  401498:	0c100732 	jal	401cc8 <set_cursor>
  40149c:	26040000 	addiu	a0,s0,0
  4014a0:	0c10075c 	jal	401d70 <puts>
  4014a4:	8fa6002c 	lw	a2,44(sp)
  4014a8:	3c021001 	lui	v0,0x1001
  4014ac:	ac400068 	sw	zero,104(v0)
  4014b0:	acc00064 	sw	zero,100(a2)
  4014b4:	1000ff11 	b	4010fc <main+0x83c>
  4014b8:	8ea40060 	lw	a0,96(s5)
  4014bc:	14640011 	bne	v1,a0,401504 <main+0xc44>
  4014c0:	3c061001 	lui	a2,0x1001
  4014c4:	8cc5005c 	lw	a1,92(a2)
  4014c8:	10450004 	beq	v0,a1,4014dc <main+0xc1c>
  4014cc:	24a70001 	addiu	a3,a1,1
  4014d0:	10470002 	beq	v0,a3,4014dc <main+0xc1c>
  4014d4:	24a7ffff 	addiu	a3,a1,-1
  4014d8:	1447000a 	bne	v0,a3,401504 <main+0xc44>
  4014dc:	30a500ff 	andi	a1,a1,0xff
  4014e0:	308400ff 	andi	a0,a0,0xff
  4014e4:	afa6002c 	sw	a2,44(sp)
  4014e8:	0c100732 	jal	401cc8 <set_cursor>
  4014ec:	26040000 	addiu	a0,s0,0
  4014f0:	0c10075c 	jal	401d70 <puts>
  4014f4:	8fa6002c 	lw	a2,44(sp)
  4014f8:	aea00060 	sw	zero,96(s5)
  4014fc:	acc0005c 	sw	zero,92(a2)
  401500:	1000fefe 	b	4010fc <main+0x83c>
  401504:	8ec40058 	lw	a0,88(s6)
  401508:	14640011 	bne	v1,a0,401550 <main+0xc90>
  40150c:	3c061001 	lui	a2,0x1001
  401510:	8cc50054 	lw	a1,84(a2)
  401514:	10450004 	beq	v0,a1,401528 <main+0xc68>
  401518:	24a70001 	addiu	a3,a1,1
  40151c:	10470002 	beq	v0,a3,401528 <main+0xc68>
  401520:	24a7ffff 	addiu	a3,a1,-1
  401524:	1447000a 	bne	v0,a3,401550 <main+0xc90>
  401528:	30a500ff 	andi	a1,a1,0xff
  40152c:	308400ff 	andi	a0,a0,0xff
  401530:	afa6002c 	sw	a2,44(sp)
  401534:	0c100732 	jal	401cc8 <set_cursor>
  401538:	26040000 	addiu	a0,s0,0
  40153c:	0c10075c 	jal	401d70 <puts>
  401540:	8fa6002c 	lw	a2,44(sp)
  401544:	aec00058 	sw	zero,88(s6)
  401548:	acc00054 	sw	zero,84(a2)
  40154c:	1000feeb 	b	4010fc <main+0x83c>
  401550:	8ee40050 	lw	a0,80(s7)
  401554:	14640011 	bne	v1,a0,40159c <main+0xcdc>
  401558:	3c061001 	lui	a2,0x1001
  40155c:	8cc5004c 	lw	a1,76(a2)
  401560:	10450004 	beq	v0,a1,401574 <main+0xcb4>
  401564:	24a70001 	addiu	a3,a1,1
  401568:	10470002 	beq	v0,a3,401574 <main+0xcb4>
  40156c:	24a7ffff 	addiu	a3,a1,-1
  401570:	1447000a 	bne	v0,a3,40159c <main+0xcdc>
  401574:	30a500ff 	andi	a1,a1,0xff
  401578:	308400ff 	andi	a0,a0,0xff
  40157c:	afa6002c 	sw	a2,44(sp)
  401580:	0c100732 	jal	401cc8 <set_cursor>
  401584:	26040000 	addiu	a0,s0,0
  401588:	0c10075c 	jal	401d70 <puts>
  40158c:	8fa6002c 	lw	a2,44(sp)
  401590:	aee00050 	sw	zero,80(s7)
  401594:	acc0004c 	sw	zero,76(a2)
  401598:	1000fed8 	b	4010fc <main+0x83c>
  40159c:	2404004d 	li	a0,77
  4015a0:	1444ff46 	bne	v0,a0,4012bc <main+0x9fc>
  4015a4:	3c021001 	lui	v0,0x1001
  4015a8:	306400ff 	andi	a0,v1,0xff
  4015ac:	2405004d 	li	a1,77
  4015b0:	ac400098 	sw	zero,152(v0)
  4015b4:	0c100732 	jal	401cc8 <set_cursor>
  4015b8:	26040000 	addiu	a0,s0,0
  4015bc:	0c10075c 	jal	401d70 <puts>
  4015c0:	1000ff3e 	b	4012bc <main+0x9fc>
  4015c4:	8fc20094 	lw	v0,148(s8)
  4015c8:	24030001 	li	v1,1
  4015cc:	1043ff56 	beq	v0,v1,401328 <main+0xa68>
  4015d0:	3c021001 	lui	v0,0x1001
  4015d4:	8c420070 	lw	v0,112(v0)
  4015d8:	1040001f 	beqz	v0,401658 <main+0xd98>
  4015dc:	3c1e1001 	lui	s8,0x1001
  4015e0:	8fc2006c 	lw	v0,108(s8)
  4015e4:	1040001c 	beqz	v0,401658 <main+0xd98>
  4015e8:	28430003 	slti	v1,v0,3
  4015ec:	146000fb 	bnez	v1,4019dc <main+0x111c>
  4015f0:	3c031001 	lui	v1,0x1001
  4015f4:	8c6400b4 	lw	a0,180(v1)
  4015f8:	148000f8 	bnez	a0,4019dc <main+0x111c>
  4015fc:	24040003 	li	a0,3
  401600:	14440002 	bne	v0,a0,40160c <main+0xd4c>
  401604:	24020001 	li	v0,1
  401608:	ac6200b4 	sw	v0,180(v1)
  40160c:	00002825 	move	a1,zero
  401610:	24040002 	li	a0,2
  401614:	0c100724 	jal	401c90 <set_color>
  401618:	3c021001 	lui	v0,0x1001
  40161c:	93c5006f 	lbu	a1,111(s8)
  401620:	90440073 	lbu	a0,115(v0)
  401624:	0c100732 	jal	401cc8 <set_cursor>
  401628:	02802025 	move	a0,s4
  40162c:	0c10075c 	jal	401d70 <puts>
  401630:	8fc5006c 	lw	a1,108(s8)
  401634:	24a5ffff 	addiu	a1,a1,-1
  401638:	3c021001 	lui	v0,0x1001
  40163c:	90440073 	lbu	a0,115(v0)
  401640:	afc5006c 	sw	a1,108(s8)
  401644:	30a500ff 	andi	a1,a1,0xff
  401648:	0c100732 	jal	401cc8 <set_cursor>
  40164c:	3c041001 	lui	a0,0x1001
  401650:	24840008 	addiu	a0,a0,8
  401654:	0c10075c 	jal	401d70 <puts>
  401658:	3c021001 	lui	v0,0x1001
  40165c:	8c420068 	lw	v0,104(v0)
  401660:	1040001f 	beqz	v0,4016e0 <main+0xe20>
  401664:	3c1e1001 	lui	s8,0x1001
  401668:	8fc20064 	lw	v0,100(s8)
  40166c:	1040001c 	beqz	v0,4016e0 <main+0xe20>
  401670:	28430003 	slti	v1,v0,3
  401674:	146000ee 	bnez	v1,401a30 <main+0x1170>
  401678:	3c031001 	lui	v1,0x1001
  40167c:	8c6400b0 	lw	a0,176(v1)
  401680:	148000eb 	bnez	a0,401a30 <main+0x1170>
  401684:	24040003 	li	a0,3
  401688:	14440002 	bne	v0,a0,401694 <main+0xdd4>
  40168c:	24020001 	li	v0,1
  401690:	ac6200b0 	sw	v0,176(v1)
  401694:	00002825 	move	a1,zero
  401698:	24040002 	li	a0,2
  40169c:	0c100724 	jal	401c90 <set_color>
  4016a0:	3c021001 	lui	v0,0x1001
  4016a4:	93c50067 	lbu	a1,103(s8)
  4016a8:	9044006b 	lbu	a0,107(v0)
  4016ac:	0c100732 	jal	401cc8 <set_cursor>
  4016b0:	02802025 	move	a0,s4
  4016b4:	0c10075c 	jal	401d70 <puts>
  4016b8:	8fc50064 	lw	a1,100(s8)
  4016bc:	24a5ffff 	addiu	a1,a1,-1
  4016c0:	3c021001 	lui	v0,0x1001
  4016c4:	9044006b 	lbu	a0,107(v0)
  4016c8:	afc50064 	sw	a1,100(s8)
  4016cc:	30a500ff 	andi	a1,a1,0xff
  4016d0:	0c100732 	jal	401cc8 <set_cursor>
  4016d4:	3c041001 	lui	a0,0x1001
  4016d8:	24840008 	addiu	a0,a0,8
  4016dc:	0c10075c 	jal	401d70 <puts>
  4016e0:	8ea20060 	lw	v0,96(s5)
  4016e4:	1040001d 	beqz	v0,40175c <main+0xe9c>
  4016e8:	3c1e1001 	lui	s8,0x1001
  4016ec:	8fc3005c 	lw	v1,92(s8)
  4016f0:	1060001a 	beqz	v1,40175c <main+0xe9c>
  4016f4:	28430004 	slti	v1,v0,4
  4016f8:	146000e2 	bnez	v1,401a84 <main+0x11c4>
  4016fc:	3c031001 	lui	v1,0x1001
  401700:	8c6400ac 	lw	a0,172(v1)
  401704:	148000df 	bnez	a0,401a84 <main+0x11c4>
  401708:	24040004 	li	a0,4
  40170c:	14440002 	bne	v0,a0,401718 <main+0xe58>
  401710:	24020001 	li	v0,1
  401714:	ac6200ac 	sw	v0,172(v1)
  401718:	00002825 	move	a1,zero
  40171c:	24040002 	li	a0,2
  401720:	0c100724 	jal	401c90 <set_color>
  401724:	93c5005f 	lbu	a1,95(s8)
  401728:	92a40063 	lbu	a0,99(s5)
  40172c:	0c100732 	jal	401cc8 <set_cursor>
  401730:	02802025 	move	a0,s4
  401734:	0c10075c 	jal	401d70 <puts>
  401738:	8ea40060 	lw	a0,96(s5)
  40173c:	2484ffff 	addiu	a0,a0,-1
  401740:	93c5005f 	lbu	a1,95(s8)
  401744:	aea40060 	sw	a0,96(s5)
  401748:	308400ff 	andi	a0,a0,0xff
  40174c:	0c100732 	jal	401cc8 <set_cursor>
  401750:	3c041001 	lui	a0,0x1001
  401754:	24840008 	addiu	a0,a0,8
  401758:	0c10075c 	jal	401d70 <puts>
  40175c:	8ec20058 	lw	v0,88(s6)
  401760:	1040001d 	beqz	v0,4017d8 <main+0xf18>
  401764:	3c151001 	lui	s5,0x1001
  401768:	8ea30054 	lw	v1,84(s5)
  40176c:	1060001a 	beqz	v1,4017d8 <main+0xf18>
  401770:	28430004 	slti	v1,v0,4
  401774:	146000d7 	bnez	v1,401ad4 <main+0x1214>
  401778:	3c031001 	lui	v1,0x1001
  40177c:	8c6400a8 	lw	a0,168(v1)
  401780:	148000d4 	bnez	a0,401ad4 <main+0x1214>
  401784:	24040004 	li	a0,4
  401788:	14440002 	bne	v0,a0,401794 <main+0xed4>
  40178c:	24020001 	li	v0,1
  401790:	ac6200a8 	sw	v0,168(v1)
  401794:	00002825 	move	a1,zero
  401798:	24040002 	li	a0,2
  40179c:	0c100724 	jal	401c90 <set_color>
  4017a0:	92a50057 	lbu	a1,87(s5)
  4017a4:	92c4005b 	lbu	a0,91(s6)
  4017a8:	0c100732 	jal	401cc8 <set_cursor>
  4017ac:	02802025 	move	a0,s4
  4017b0:	0c10075c 	jal	401d70 <puts>
  4017b4:	8ec40058 	lw	a0,88(s6)
  4017b8:	2484ffff 	addiu	a0,a0,-1
  4017bc:	92a50057 	lbu	a1,87(s5)
  4017c0:	aec40058 	sw	a0,88(s6)
  4017c4:	308400ff 	andi	a0,a0,0xff
  4017c8:	0c100732 	jal	401cc8 <set_cursor>
  4017cc:	3c041001 	lui	a0,0x1001
  4017d0:	24840008 	addiu	a0,a0,8
  4017d4:	0c10075c 	jal	401d70 <puts>
  4017d8:	8ee20050 	lw	v0,80(s7)
  4017dc:	1040001d 	beqz	v0,401854 <main+0xf94>
  4017e0:	3c151001 	lui	s5,0x1001
  4017e4:	8ea3004c 	lw	v1,76(s5)
  4017e8:	1060001a 	beqz	v1,401854 <main+0xf94>
  4017ec:	28430004 	slti	v1,v0,4
  4017f0:	146000cc 	bnez	v1,401b24 <main+0x1264>
  4017f4:	3c031001 	lui	v1,0x1001
  4017f8:	8c6400a4 	lw	a0,164(v1)
  4017fc:	148000c9 	bnez	a0,401b24 <main+0x1264>
  401800:	24040004 	li	a0,4
  401804:	14440002 	bne	v0,a0,401810 <main+0xf50>
  401808:	24020001 	li	v0,1
  40180c:	ac6200a4 	sw	v0,164(v1)
  401810:	00002825 	move	a1,zero
  401814:	24040002 	li	a0,2
  401818:	0c100724 	jal	401c90 <set_color>
  40181c:	92a5004f 	lbu	a1,79(s5)
  401820:	92e40053 	lbu	a0,83(s7)
  401824:	0c100732 	jal	401cc8 <set_cursor>
  401828:	02802025 	move	a0,s4
  40182c:	0c10075c 	jal	401d70 <puts>
  401830:	8ee40050 	lw	a0,80(s7)
  401834:	2484ffff 	addiu	a0,a0,-1
  401838:	92a5004f 	lbu	a1,79(s5)
  40183c:	aee40050 	sw	a0,80(s7)
  401840:	308400ff 	andi	a0,a0,0xff
  401844:	0c100732 	jal	401cc8 <set_cursor>
  401848:	3c041001 	lui	a0,0x1001
  40184c:	24840008 	addiu	a0,a0,8
  401850:	0c10075c 	jal	401d70 <puts>
  401854:	8e240074 	lw	a0,116(s1)
  401858:	0c100211 	jal	400844 <ganar>
  40185c:	0c1000f0 	jal	4003c0 <perder>
  401860:	24030001 	li	v1,1
  401864:	104300c3 	beq	v0,v1,401b74 <main+0x12b4>
  401868:	24040050 	li	a0,80
  40186c:	0c1006ea 	jal	401ba8 <delay_ms>
  401870:	1000fc39 	b	400958 <main+0x98>
  401874:	3c021001 	lui	v0,0x1001
  401878:	8c440068 	lw	a0,104(v0)
  40187c:	8fa2001c 	lw	v0,28(sp)
  401880:	8c42008c 	lw	v0,140(v0)
  401884:	14640011 	bne	v1,a0,4018cc <main+0x100c>
  401888:	3c051001 	lui	a1,0x1001
  40188c:	8ca50064 	lw	a1,100(a1)
  401890:	10450002 	beq	v0,a1,40189c <main+0xfdc>
  401894:	24a50001 	addiu	a1,a1,1
  401898:	14450012 	bne	v0,a1,4018e4 <main+0x1024>
  40189c:	3c021001 	lui	v0,0x1001
  4018a0:	90450067 	lbu	a1,103(v0)
  4018a4:	308400ff 	andi	a0,a0,0xff
  4018a8:	afa20024 	sw	v0,36(sp)
  4018ac:	0c100732 	jal	401cc8 <set_cursor>
  4018b0:	26040000 	addiu	a0,s0,0
  4018b4:	0c10075c 	jal	401d70 <puts>
  4018b8:	3c021001 	lui	v0,0x1001
  4018bc:	ac400068 	sw	zero,104(v0)
  4018c0:	8fa20024 	lw	v0,36(sp)
  4018c4:	ac400064 	sw	zero,100(v0)
  4018c8:	1000fed8 	b	40142c <main+0xb6c>
  4018cc:	2485ffff 	addiu	a1,a0,-1
  4018d0:	14650004 	bne	v1,a1,4018e4 <main+0x1024>
  4018d4:	3c051001 	lui	a1,0x1001
  4018d8:	8ca50064 	lw	a1,100(a1)
  4018dc:	24a5ffff 	addiu	a1,a1,-1
  4018e0:	1000ffed 	b	401898 <main+0xfd8>
  4018e4:	8ea40060 	lw	a0,96(s5)
  4018e8:	1464000f 	bne	v1,a0,401928 <main+0x1068>
  4018ec:	3c061001 	lui	a2,0x1001
  4018f0:	8cc5005c 	lw	a1,92(a2)
  4018f4:	10450002 	beq	v0,a1,401900 <main+0x1040>
  4018f8:	24a7ffff 	addiu	a3,a1,-1
  4018fc:	1447000a 	bne	v0,a3,401928 <main+0x1068>
  401900:	30a500ff 	andi	a1,a1,0xff
  401904:	308400ff 	andi	a0,a0,0xff
  401908:	afa60024 	sw	a2,36(sp)
  40190c:	0c100732 	jal	401cc8 <set_cursor>
  401910:	26040000 	addiu	a0,s0,0
  401914:	0c10075c 	jal	401d70 <puts>
  401918:	8fa60024 	lw	a2,36(sp)
  40191c:	aea00060 	sw	zero,96(s5)
  401920:	acc0005c 	sw	zero,92(a2)
  401924:	1000fec1 	b	40142c <main+0xb6c>
  401928:	8ec40058 	lw	a0,88(s6)
  40192c:	1464000f 	bne	v1,a0,40196c <main+0x10ac>
  401930:	3c061001 	lui	a2,0x1001
  401934:	8cc50054 	lw	a1,84(a2)
  401938:	10450002 	beq	v0,a1,401944 <main+0x1084>
  40193c:	24a7ffff 	addiu	a3,a1,-1
  401940:	1447000a 	bne	v0,a3,40196c <main+0x10ac>
  401944:	30a500ff 	andi	a1,a1,0xff
  401948:	308400ff 	andi	a0,a0,0xff
  40194c:	afa60024 	sw	a2,36(sp)
  401950:	0c100732 	jal	401cc8 <set_cursor>
  401954:	26040000 	addiu	a0,s0,0
  401958:	0c10075c 	jal	401d70 <puts>
  40195c:	8fa60024 	lw	a2,36(sp)
  401960:	aec00058 	sw	zero,88(s6)
  401964:	acc00054 	sw	zero,84(a2)
  401968:	1000feb0 	b	40142c <main+0xb6c>
  40196c:	8ee40050 	lw	a0,80(s7)
  401970:	14640011 	bne	v1,a0,4019b8 <main+0x10f8>
  401974:	3c061001 	lui	a2,0x1001
  401978:	8cc5004c 	lw	a1,76(a2)
  40197c:	10450004 	beq	v0,a1,401990 <main+0x10d0>
  401980:	24a70001 	addiu	a3,a1,1
  401984:	10470002 	beq	v0,a3,401990 <main+0x10d0>
  401988:	24a7ffff 	addiu	a3,a1,-1
  40198c:	1447000a 	bne	v0,a3,4019b8 <main+0x10f8>
  401990:	30a500ff 	andi	a1,a1,0xff
  401994:	308400ff 	andi	a0,a0,0xff
  401998:	afa60024 	sw	a2,36(sp)
  40199c:	0c100732 	jal	401cc8 <set_cursor>
  4019a0:	26040000 	addiu	a0,s0,0
  4019a4:	0c10075c 	jal	401d70 <puts>
  4019a8:	8fa60024 	lw	a2,36(sp)
  4019ac:	aee00050 	sw	zero,80(s7)
  4019b0:	acc0004c 	sw	zero,76(a2)
  4019b4:	1000fe9d 	b	40142c <main+0xb6c>
  4019b8:	24040002 	li	a0,2
  4019bc:	1444ff04 	bne	v0,a0,4015d0 <main+0xd10>
  4019c0:	306400ff 	andi	a0,v1,0xff
  4019c4:	24050002 	li	a1,2
  4019c8:	afc00094 	sw	zero,148(s8)
  4019cc:	0c100732 	jal	401cc8 <set_cursor>
  4019d0:	26040000 	addiu	a0,s0,0
  4019d4:	0c10075c 	jal	401d70 <puts>
  4019d8:	1000fefd 	b	4015d0 <main+0xd10>
  4019dc:	2843004d 	slti	v1,v0,77
  4019e0:	1060ff1d 	beqz	v1,401658 <main+0xd98>
  4019e4:	3c031001 	lui	v1,0x1001
  4019e8:	8c6400b4 	lw	a0,180(v1)
  4019ec:	24050001 	li	a1,1
  4019f0:	1485ff19 	bne	a0,a1,401658 <main+0xd98>
  4019f4:	2404004c 	li	a0,76
  4019f8:	14440001 	bne	v0,a0,401a00 <main+0x1140>
  4019fc:	ac6000b4 	sw	zero,180(v1)
  401a00:	00002825 	move	a1,zero
  401a04:	24040002 	li	a0,2
  401a08:	0c100724 	jal	401c90 <set_color>
  401a0c:	3c021001 	lui	v0,0x1001
  401a10:	93c5006f 	lbu	a1,111(s8)
  401a14:	90440073 	lbu	a0,115(v0)
  401a18:	0c100732 	jal	401cc8 <set_cursor>
  401a1c:	02802025 	move	a0,s4
  401a20:	0c10075c 	jal	401d70 <puts>
  401a24:	8fc5006c 	lw	a1,108(s8)
  401a28:	24a50001 	addiu	a1,a1,1
  401a2c:	1000ff02 	b	401638 <main+0xd78>
  401a30:	2843004d 	slti	v1,v0,77
  401a34:	1060ff2a 	beqz	v1,4016e0 <main+0xe20>
  401a38:	3c031001 	lui	v1,0x1001
  401a3c:	8c6400b0 	lw	a0,176(v1)
  401a40:	24050001 	li	a1,1
  401a44:	1485ff26 	bne	a0,a1,4016e0 <main+0xe20>
  401a48:	2404004c 	li	a0,76
  401a4c:	14440001 	bne	v0,a0,401a54 <main+0x1194>
  401a50:	ac6000b0 	sw	zero,176(v1)
  401a54:	00002825 	move	a1,zero
  401a58:	24040002 	li	a0,2
  401a5c:	0c100724 	jal	401c90 <set_color>
  401a60:	3c021001 	lui	v0,0x1001
  401a64:	93c50067 	lbu	a1,103(s8)
  401a68:	9044006b 	lbu	a0,107(v0)
  401a6c:	0c100732 	jal	401cc8 <set_cursor>
  401a70:	02802025 	move	a0,s4
  401a74:	0c10075c 	jal	401d70 <puts>
  401a78:	8fc50064 	lw	a1,100(s8)
  401a7c:	24a50001 	addiu	a1,a1,1
  401a80:	1000ff0f 	b	4016c0 <main+0xe00>
  401a84:	2843001b 	slti	v1,v0,27
  401a88:	1060ff34 	beqz	v1,40175c <main+0xe9c>
  401a8c:	3c031001 	lui	v1,0x1001
  401a90:	8c6400ac 	lw	a0,172(v1)
  401a94:	24050001 	li	a1,1
  401a98:	1485ff30 	bne	a0,a1,40175c <main+0xe9c>
  401a9c:	2404001a 	li	a0,26
  401aa0:	14440001 	bne	v0,a0,401aa8 <main+0x11e8>
  401aa4:	ac6000ac 	sw	zero,172(v1)
  401aa8:	00002825 	move	a1,zero
  401aac:	24040002 	li	a0,2
  401ab0:	0c100724 	jal	401c90 <set_color>
  401ab4:	93c5005f 	lbu	a1,95(s8)
  401ab8:	92a40063 	lbu	a0,99(s5)
  401abc:	0c100732 	jal	401cc8 <set_cursor>
  401ac0:	02802025 	move	a0,s4
  401ac4:	0c10075c 	jal	401d70 <puts>
  401ac8:	8ea40060 	lw	a0,96(s5)
  401acc:	24840001 	addiu	a0,a0,1
  401ad0:	1000ff1b 	b	401740 <main+0xe80>
  401ad4:	2843001b 	slti	v1,v0,27
  401ad8:	1060ff3f 	beqz	v1,4017d8 <main+0xf18>
  401adc:	3c031001 	lui	v1,0x1001
  401ae0:	8c6400a8 	lw	a0,168(v1)
  401ae4:	24050001 	li	a1,1
  401ae8:	1485ff3b 	bne	a0,a1,4017d8 <main+0xf18>
  401aec:	2404001a 	li	a0,26
  401af0:	14440001 	bne	v0,a0,401af8 <main+0x1238>
  401af4:	ac6000a8 	sw	zero,168(v1)
  401af8:	00002825 	move	a1,zero
  401afc:	24040002 	li	a0,2
  401b00:	0c100724 	jal	401c90 <set_color>
  401b04:	92a50057 	lbu	a1,87(s5)
  401b08:	92c4005b 	lbu	a0,91(s6)
  401b0c:	0c100732 	jal	401cc8 <set_cursor>
  401b10:	02802025 	move	a0,s4
  401b14:	0c10075c 	jal	401d70 <puts>
  401b18:	8ec40058 	lw	a0,88(s6)
  401b1c:	24840001 	addiu	a0,a0,1
  401b20:	1000ff26 	b	4017bc <main+0xefc>
  401b24:	2843001b 	slti	v1,v0,27
  401b28:	1060ff4a 	beqz	v1,401854 <main+0xf94>
  401b2c:	3c031001 	lui	v1,0x1001
  401b30:	8c6400a4 	lw	a0,164(v1)
  401b34:	24050001 	li	a1,1
  401b38:	1485ff46 	bne	a0,a1,401854 <main+0xf94>
  401b3c:	2404001a 	li	a0,26
  401b40:	14440001 	bne	v0,a0,401b48 <main+0x1288>
  401b44:	ac6000a4 	sw	zero,164(v1)
  401b48:	00002825 	move	a1,zero
  401b4c:	24040002 	li	a0,2
  401b50:	0c100724 	jal	401c90 <set_color>
  401b54:	92a5004f 	lbu	a1,79(s5)
  401b58:	92e40053 	lbu	a0,83(s7)
  401b5c:	0c100732 	jal	401cc8 <set_cursor>
  401b60:	02802025 	move	a0,s4
  401b64:	0c10075c 	jal	401d70 <puts>
  401b68:	8ee40050 	lw	a0,80(s7)
  401b6c:	24840001 	addiu	a0,a0,1
  401b70:	1000ff31 	b	401838 <main+0xf78>
  401b74:	8fbf0054 	lw	ra,84(sp)
  401b78:	8fbe0050 	lw	s8,80(sp)
  401b7c:	8fb7004c 	lw	s7,76(sp)
  401b80:	8fb60048 	lw	s6,72(sp)
  401b84:	8fb50044 	lw	s5,68(sp)
  401b88:	8fb40040 	lw	s4,64(sp)
  401b8c:	8fb3003c 	lw	s3,60(sp)
  401b90:	8fb20038 	lw	s2,56(sp)
  401b94:	8fb10034 	lw	s1,52(sp)
  401b98:	8fb00030 	lw	s0,48(sp)
  401b9c:	00001025 	move	v0,zero
  401ba0:	27bd0058 	addiu	sp,sp,88
  401ba4:	03e00008 	jr	ra

00401ba8 <delay_ms>:
  401ba8:	3c08ffff 	lui	t0,0xffff
  401bac:	8d090008 	lw	t1,8(t0)
  401bb0:	00000000 	nop
  401bb4:	01244820 	add	t1,t1,a0

00401bb8 <.dm_loop>:
  401bb8:	8d0a0008 	lw	t2,8(t0)
  401bbc:	00000000 	nop
  401bc0:	0149582b 	sltu	t3,t2,t1
  401bc4:	1560fffc 	bnez	t3,401bb8 <.dm_loop>
  401bc8:	00000000 	nop
  401bcc:	03e00008 	jr	ra
  401bd0:	00000000 	nop

00401bd4 <keypad_init>:
  401bd4:	3c081001 	lui	t0,0x1001
  401bd8:	ad000080 	sw	zero,128(t0)
  401bdc:	03e00008 	jr	ra
  401be0:	00000000 	nop

00401be4 <keypad_getkey>:
  401be4:	3c08ffff 	lui	t0,0xffff
  401be8:	81080004 	lb	t0,4(t0)
  401bec:	24090008 	li	t1,8
  401bf0:	240b0001 	li	t3,1
  401bf4:	00005025 	move	t2,zero

00401bf8 <.gk_loop>:
  401bf8:	11490018 	beq	t2,t1,401c5c <.gk_end_loop>
  401bfc:	00000000 	nop
  401c00:	010b6024 	and	t4,t0,t3
  401c04:	000b5840 	sll	t3,t3,0x1
  401c08:	11800011 	beqz	t4,401c50 <.gk_inc_loop>
  401c0c:	00000000 	nop
  401c10:	3c081001 	lui	t0,0x1001
  401c14:	8d080080 	lw	t0,128(t0)
  401c18:	3c09ffff 	lui	t1,0xffff
  401c1c:	8d290008 	lw	t1,8(t1)
  401c20:	00000000 	nop
  401c24:	0128582b 	sltu	t3,t1,t0
  401c28:	11600002 	beqz	t3,401c34 <.set_key>
  401c2c:	00000000 	nop
  401c30:	00001025 	move	v0,zero

00401c34 <.set_key>:
  401c34:	252900c8 	addiu	t1,t1,200
  401c38:	3c081001 	lui	t0,0x1001
  401c3c:	ad090080 	sw	t1,128(t0)
  401c40:	01401025 	move	v0,t2
  401c44:	24420001 	addiu	v0,v0,1
  401c48:	03e00008 	jr	ra
  401c4c:	00000000 	nop

00401c50 <.gk_inc_loop>:
  401c50:	254a0001 	addiu	t2,t2,1
  401c54:	081006fe 	j	401bf8 <.gk_loop>
  401c58:	00000000 	nop

00401c5c <.gk_end_loop>:
  401c5c:	00001025 	move	v0,zero
  401c60:	03e00008 	jr	ra
  401c64:	00000000 	nop

00401c68 <divide>:
  401c68:	acc00000 	sw	zero,0(a2)
  401c6c:	0085102b 	sltu	v0,a0,a1
  401c70:	10400002 	beqz	v0,401c7c <divide+0x14>
  401c74:	ace40000 	sw	a0,0(a3)
  401c78:	03e00008 	jr	ra
  401c7c:	8cc20000 	lw	v0,0(a2)
  401c80:	00852023 	subu	a0,a0,a1
  401c84:	24420001 	addiu	v0,v0,1
  401c88:	acc20000 	sw	v0,0(a2)
  401c8c:	1000fff7 	b	401c6c <divide+0x4>

00401c90 <set_color>:
  401c90:	00052900 	sll	a1,a1,0x4
  401c94:	3084000f 	andi	a0,a0,0xf
  401c98:	00a42825 	or	a1,a1,a0
  401c9c:	3c021001 	lui	v0,0x1001
  401ca0:	a04500c6 	sb	a1,198(v0)
  401ca4:	03e00008 	jr	ra

00401ca8 <get_color>:
  401ca8:	3c031001 	lui	v1,0x1001
  401cac:	906200c6 	lbu	v0,198(v1)
  401cb0:	3042000f 	andi	v0,v0,0xf
  401cb4:	a0820000 	sb	v0,0(a0)
  401cb8:	906200c6 	lbu	v0,198(v1)
  401cbc:	00021102 	srl	v0,v0,0x4
  401cc0:	a0a20000 	sb	v0,0(a1)
  401cc4:	03e00008 	jr	ra

00401cc8 <set_cursor>:
  401cc8:	2c820028 	sltiu	v0,a0,40
  401ccc:	10400006 	beqz	v0,401ce8 <set_cursor+0x20>
  401cd0:	2ca20050 	sltiu	v0,a1,80
  401cd4:	10400004 	beqz	v0,401ce8 <set_cursor+0x20>
  401cd8:	3c021001 	lui	v0,0x1001
  401cdc:	a04400c5 	sb	a0,197(v0)
  401ce0:	3c021001 	lui	v0,0x1001
  401ce4:	a04500c4 	sb	a1,196(v0)
  401ce8:	03e00008 	jr	ra

00401cec <put_char>:
  401cec:	3c071001 	lui	a3,0x1001
  401cf0:	2403000a 	li	v1,10
  401cf4:	90e200c5 	lbu	v0,197(a3)
  401cf8:	3c061001 	lui	a2,0x1001
  401cfc:	14830006 	bne	a0,v1,401d18 <put_char+0x2c>
  401d00:	2c430027 	sltiu	v1,v0,39
  401d04:	10600002 	beqz	v1,401d10 <put_char+0x24>
  401d08:	24420001 	addiu	v0,v0,1
  401d0c:	a0e200c5 	sb	v0,197(a3)
  401d10:	a0c000c4 	sb	zero,196(a2)
  401d14:	03e00008 	jr	ra
  401d18:	3c031001 	lui	v1,0x1001
  401d1c:	906300c6 	lbu	v1,198(v1)
  401d20:	90c500c4 	lbu	a1,196(a2)
  401d24:	00031a00 	sll	v1,v1,0x8
  401d28:	00642025 	or	a0,v1,a0
  401d2c:	00021880 	sll	v1,v0,0x2
  401d30:	00621821 	addu	v1,v1,v0
  401d34:	00031900 	sll	v1,v1,0x4
  401d38:	00651821 	addu	v1,v1,a1
  401d3c:	00031840 	sll	v1,v1,0x1
  401d40:	3408b800 	li	t0,0xb800
  401d44:	01031821 	addu	v1,t0,v1
  401d48:	a4640000 	sh	a0,0(v1)
  401d4c:	2ca3004f 	sltiu	v1,a1,79
  401d50:	10600003 	beqz	v1,401d60 <put_char+0x74>
  401d54:	24a50001 	addiu	a1,a1,1
  401d58:	a0c500c4 	sb	a1,196(a2)
  401d5c:	03e00008 	jr	ra
  401d60:	24420001 	addiu	v0,v0,1
  401d64:	a0c000c4 	sb	zero,196(a2)
  401d68:	a0e200c5 	sb	v0,197(a3)
  401d6c:	03e00008 	jr	ra

00401d70 <puts>:
  401d70:	00804825 	move	t1,a0
  401d74:	80840000 	lb	a0,0(a0)
  401d78:	14800001 	bnez	a0,401d80 <puts+0x10>
  401d7c:	03e00008 	jr	ra
  401d80:	27bdffe8 	addiu	sp,sp,-24
  401d84:	afbf0014 	sw	ra,20(sp)
  401d88:	308400ff 	andi	a0,a0,0xff
  401d8c:	25290001 	addiu	t1,t1,1
  401d90:	0c10073b 	jal	401cec <put_char>
  401d94:	81240000 	lb	a0,0(t1)
  401d98:	1480fffb 	bnez	a0,401d88 <puts+0x18>
  401d9c:	8fbf0014 	lw	ra,20(sp)
  401da0:	27bd0018 	addiu	sp,sp,24
  401da4:	03e00008 	jr	ra

00401da8 <clear_screen>:
  401da8:	3c021001 	lui	v0,0x1001
  401dac:	904200c6 	lbu	v0,198(v0)
  401db0:	3403b800 	li	v1,0xb800
  401db4:	00021200 	sll	v0,v0,0x8
  401db8:	34420020 	ori	v0,v0,0x20
  401dbc:	3404cac0 	li	a0,0xcac0
  401dc0:	a4620000 	sh	v0,0(v1)
  401dc4:	24630002 	addiu	v1,v1,2
  401dc8:	1464fffd 	bne	v1,a0,401dc0 <clear_screen+0x18>
  401dcc:	3c021001 	lui	v0,0x1001
  401dd0:	a04000c5 	sb	zero,197(v0)
  401dd4:	3c021001 	lui	v0,0x1001
  401dd8:	a04000c4 	sb	zero,196(v0)
  401ddc:	03e00008 	jr	ra

Desensamblado de la sección .data:

10010000 <Robotron-0xc>:
10010000:	01010000 	0x1010000
10010004:	16160000 	bne	s0,s6,10010008 <clear_screen+0xfc0e260>
10010008:	03040000 	0x3040000

1001000c <Robotron>:
1001000c:	526f626f 	0x526f626f
10010010:	74726f6e 	jalx	11c9bdb8 <chr_attr+0x1c8bcf2>
10010014:	 	0x576176

10010015 <Oleada>:
10010015:	5761      	slti	a3,97
10010017:	7665      	cmpi	a2,101
10010019:	2031      	beqz	s0,1001007e <x+0x2>
	...

1001001c <lose>:
1001001c:	48415a20 	0x48415a20
10010020:	44454652 	0x44454652
10010024:	41554441 	0x41554441
10010028:	444f2041 	0x444f2041
1001002c:	204c4120 	addi	t4,v0,16672
10010030:	48554d41 	0x48554d41
10010034:	4e494441 	c3	0x494441
10010038:	4421203a 	0x4421203a
1001003c:	 	slti	zero,zero,18241

1001003e <win>:
1001003e:	47414e41 	c1	0x1414e41
10010042:	53544520 	0x53544520
10010046:	3a440000 	xori	a0,s2,0x0
	...

1001004c <ry4>:
1001004c:	0000001d 	0x1d

10010050 <rx4>:
10010050:	00000010 	mfhi	zero

10010054 <ry3>:
10010054:	00000039 	0x39

10010058 <rx3>:
10010058:	0000000a 	0xa

1001005c <ry2>:
1001005c:	0000000d 	break

10010060 <rx2>:
10010060:	00000016 	0x16

10010064 <ry1>:
10010064:	00000038 	0x38

10010068 <rx1>:
10010068:	00000017 	0x17

1001006c <ry>:
1001006c:	0000000f 	0xf

10010070 <rx>:
10010070:	00000008 	jr	zero

10010074 <robots>:
10010074:	00000005 	0x5

10010078 <y>:
10010078:	00000027 	nor	zero,zero,zero

1001007c <x>:
1001007c:	0000000e 	0xe

10010080 <next_key_time>:
10010080:	00000000 	nop

10010084 <bala3>:
	...

10010085 <bala2>:
	...

10010086 <bala1>:
	...

10010087 <bala>:
	...

10010088 <contadorBala>:
10010088:	00000000 	nop

1001008c <posby>:
1001008c:	00000000 	nop

10010090 <posbx>:
10010090:	00000000 	nop

10010094 <estado4>:
10010094:	00000000 	nop

10010098 <estado3>:
10010098:	00000000 	nop

1001009c <estado2>:
1001009c:	00000000 	nop

100100a0 <estado1>:
100100a0:	00000000 	nop

100100a4 <mov4>:
100100a4:	00000000 	nop

100100a8 <mov3>:
100100a8:	00000000 	nop

100100ac <mov2>:
100100ac:	00000000 	nop

100100b0 <mov1>:
100100b0:	00000000 	nop

100100b4 <mov>:
100100b4:	00000000 	nop

100100b8 <last>:
100100b8:	00000000 	nop

Desensamblado de la sección .gnu.attributes:

00000000 <.gnu.attributes>:
   0:	41000000 	bc0f	4 <_gp+0x4>
   4:	0f676e75 	jal	d9db9d4 <clear_screen+0xd5d9c2c>
   8:	00010000 	sll	zero,at,0x0
   c:	00070401 	0x70401

Desensamblado de la sección .bss:

100100bc <dx>:
100100bc:	00000000 	nop

100100c0 <dy>:
100100c0:	00000000 	nop

100100c4 <cursor_col>:
	...

100100c5 <cursor_row>:
	...

100100c6 <chr_attr>:
	...
